(dp0
S'final_bam'
p1
(dp2
S'flagstat'
p3
S'1326098 + 0 in total (QC-passed reads + QC-failed reads)\n0 + 0 secondary\n0 + 0 supplementary\n0 + 0 duplicates\n1326098 + 0 mapped (100.00%:-nan%)\n1326098 + 0 paired in sequencing\n663049 + 0 read1\n663049 + 0 read2\n1326098 + 0 properly paired (100.00%:-nan%)\n1326098 + 0 with itself and mate mapped\n0 + 0 singletons (0.00%:-nan%)\n0 + 0 with mate mapped to a different chr\n0 + 0 with mate mapped to a different chr (mapQ>=5)\n'
p4
sS'fragment_len'
p5
(cnumpy.core.multiarray
scalar
p6
(cnumpy
dtype
p7
(S'f8'
p8
I0
I1
tp9
Rp10
(I3
S'<'
p11
NNNI-1
I-1
I0
tp12
bS'\xb9\xc9#\xea\x90Q\xd2?'
p13
tp14
Rp15
g6
(g10
S'\xb7\x007,w\x8a\xf6?'
p16
tp17
Rp18
(lp19
g6
(g7
(S'i8'
p20
I0
I1
tp21
Rp22
(I3
S'<'
p23
NNNI-1
I-1
I0
tp24
bS' \x00\x00\x00\x00\x00\x00\x00'
p25
tp26
Rp27
ag6
(g22
S'\xa1\x00\x00\x00\x00\x00\x00\x00'
p28
tp29
Rp30
ag6
(g22
S'l\x01\x00\x00\x00\x00\x00\x00'
p31
tp32
Rp33
ag6
(g22
S'*\x02\x00\x00\x00\x00\x00\x00'
p34
tp35
Rp36
ag6
(g22
S'\xea\x02\x00\x00\x00\x00\x00\x00'
p37
tp38
Rp39
ag6
(g22
S'\xac\x03\x00\x00\x00\x00\x00\x00'
p40
tp41
Rp42
aS'iVBORw0KGgoAAAANSUhEUgAAAyAAAAJYCAYAAACadoJwAAAABHNCSVQICAgIfAhkiAAAAAlwSFlzAAAPYQAAD2EBqD+naQAAIABJREFUeJzs3X9Q1fed7/HXOdLKOpM60AaTugPE8HPcTQpmpfbaikzn0kwSb6BQF1pudmyM3mScLttD7D+dyDTbOi31RwkXxV4zqRrALOKm60Y7N8mltuOmGDbWcSVqC3x3k28jpwEnM3A4HDj3D8I3/Dgg8uP7PT+ej3/C+XzO95z3F5zJeZ3PL1cwGAwKAAAAAGzgdroAAAAAALGDAAIAAADANgQQAAAAALYhgAAAAACwDQEEAAAAgG0IIAAAAABsQwABAAAAYBsCCAAAAADbEEAAAAAA2IYAAgAAAMA2BBAAAAAAtiGAAAAAALANAQQAAACAbQggAAAAAGxDAAEAAABgGwIIAAAAANsQQAAAAADYhgACAAAAwDYEEAAAAAC2IYAAAAAAsA0BBAAAAIBtCCAAAAAAbEMAAQAAAGAbAggAAAAA2xBAAAAAANiGAAIAAADANgQQAAAAALYhgAAAAACwDQEEAAAAgG0IIAAAAABsQwABAAAAYBsCCAAAAADbEEAAAAAA2IYAAgAAAMA2BBAAAAAAtiGAAAAAALANAQQAAACAbQggAAAAAGxDAAEAAABgGwIIAAAAANsQQAAAAADYhgACAAAAwDYEEAAAAAC2IYAAAAAAsA0BBAAAAIBtCCAAAAAAbEMAAQAAAGAbAggAAAAA2xBAAAAAANiGAAIAAADANgQQAAAAALYhgAAAAACwDQEEAAAAgG0IIAAAAABsQwCZwYsvvii3261XX31VkpSfn681a9YoNzdXubm5OnjwoPXcwcFBlZeXKz09XVlZWWppabH6gsGgdu3apbS0NGVkZKiurs72ewEAAADCRZzTBYSjnp4e/fznP9eGDRusNpfLpYMHD+qxxx6b9vyamhrFx8fr+vXr6u7uVl5engoKCpSQkKBjx46ps7NTN27cUF9fn3JyclRQUKDs7Gw7bwkAAAAIC4yATBEMBvXkk0/qhRde0Kc//elJfaOjoyGvaW5u1s6dOyVJqampys/PV2trqyTp5MmT2r59uyQpISFBW7duVWNj4xLeAQAAABC+CCBT7Nu3T1/+8peVk5MzrW/37t168MEHVVZWpq6uLqvdMAylpKRYj1NTU2UYxm37AAAAgFjDFKwJrly5opaWFp0/f35a3/Hjx7V69WpJUl1dnR599FFduXJlUd/f6/Xq3LlzSk1N1V/8xV8s6msDAABg4QYHB9Xd3a3CwkJ97nOfc7qciEQAmeD8+fPq6elRenq6gsGg/vSnP+mpp56SaZrasWOH9bxnnnlGHo9HfX19SkhIUEpKinp6erRq1SpJsv5RSlJycrJ6enqUl5dn9SUnJ4d8/3Pnzulb3/rWEt8lAAAAFur48eP65je/6XQZEYkAMsHOnTuttRyStHnzZlVWVurRRx/VzZs3lZSUJElqaWnRPffco4SEBElSSUmJDh06pPXr16urq0ttbW2qr6+XJJWWlurIkSMqKSlRf3+/mpubdebMmZDvn5qaKmnsHzSL1GNDZWWl9u/f73QZsAl/79jC3zu28PeOHVevXtW3vvUt63Mb7hwBZBYul0uS5PP59Mgjj8jv98vlcunuu++2tueVpKqqKm3btk1paWmKi4tTXV2dEhMTJUkVFRW6ePGi0tPT5Xa75fF4tHbt2pDvNz7tKjs7W7m5uUt8dwgHK1eu5G8dQ/h7xxb+3rGFv3fsYbr8/BFAZvHGG29YP7e3t8/4vBUrVqipqSlkn9vtVm1trWpraxe9PgAAACDSsAsWAAAAANsQQAAAAADYhgACOKisrMzpEmAj/t6xhb93bOHvDcwdAQRwEP/Dii38vWMLf+/Ywt8bmDsCCAAAAADbEEAAAAAA2IYAAgAAAMA2BBAAAAAAtiGAAAAAALANAQQAAACAbQggAAAAAGxDAAEAAABgGwIIAAAAANsQQAAAAADYhgACAAAAwDYEEAAAAAC2IYAAAAAAsA0BBAAAAIBtCCAAAAAAbEMAAQAAAGAbAggAAAAA2xBAAAAAANiGAAIAAADANgQQAAAAALYhgAAAAACwDQEEAAAAgG0IIAAAAABsQwABAAAAYBsCCAAAAADbEEAwiWEYMgzD6TIAAAAQpQggsBiGoczMbGVmZhNCAAAAsCQIILB4vV75fAPy+Qbk9XqdLgcAAABRiAACAAAAwDYEEAAAAAC2IYAAAAAAsA0BBAAAAIBtCCAAAAAAbEMAAQAAAGAbAggAAAAA2xBAAAAAANiGAAIAAADANgQQAAAAALYhgAAAAACwDQEEAAAAgG0IIDN48cUX5Xa79eqrr0qSent79fDDDysjI0MPPPCAzp8/bz13cHBQ5eXlSk9PV1ZWllpaWqy+YDCoXbt2KS0tTRkZGaqrq7P9XgAAAIBwEed0AeGop6dHP//5z7Vhwwar7Xvf+542bNig1157TRcvXlRRUZG6u7u1bNky1dTUKD4+XtevX1d3d7fy8vJUUFCghIQEHTt2TJ2dnbpx44b6+vqUk5OjgoICZWdnO3iHAAAAgDMYAZkiGAzqySef1AsvvKBPf/rTVvvJkye1c+dOSdJDDz2k1atXq62tTZLU3Nxs9aWmpio/P1+tra3Wddu3b5ckJSQkaOvWrWpsbLTzlgAAAICwQQCZYt++ffryl7+snJwcq+3DDz9UIBBQUlKS1ZaSkiLDMCRJhmEoJSXF6ktNTZ1THwAAABBrmII1wZUrV9TS0jJpfQcAAACAxUMAmeD8+fPq6elRenq6gsGg/vSnP+mpp57Snj17FBcXp5s3b1qjIN3d3UpOTpY0NhrS09OjVatWWX2FhYWSpOTkZPX09CgvL2/adTOprKzUypUrJ7WVlZWprKxsUe8XAAAAM2tsbJw2df7WrVsOVRM9XMFgMOh0EeFq8+bN+od/+Ac99thj2rZtm1JSUvTcc8+pvb1dxcXF1iL06upq9fT06OjRo+rq6tKGDRv0H//xH0pMTNRLL72k48eP69y5c+rv71dubq7OnDmjtWvXTnu/jo4OrVu3Tm+//bZyc3Ntv9/x95fkWA0AAADhzOnPa9GAEZBZuFwujeezvXv3qqKiQhkZGVq+fLlOnDihZcuWSZKqqqq0bds2paWlKS4uTnV1dUpMTJQkVVRU6OLFi0pPT5fb7ZbH4wkZPgAAAIBYQACZxRtvvGH9nJSUpHPnzoV83ooVK9TU1BSyz+12q7a2VrW1tUtSIwAAABBJ2AULAAAAgG0IIAAAAABsQwABAAAAYBsCCAAAAADbEEAAAAAA2IYAAgAAAMA2BBCE1Nvb63QJAAAAiEIEEITk9XqdLgEAAABRiAACAAAAwDYEEAAAAAC2IYAAAAAAsA0BBAAAAIBtCCAAAAAAbEMAAQAAAGAbAggAAAAA2xBAAAAAANiGAAIAAADANgQQAAAAALYhgAAAAACwDQEEAAAAgG0IIAAAAABsQwABAAAAYBsCCAAAAADbEEAAAAAA2IYAAgAAAMA2BBAAAAAAtiGAAAAAALANAQRYINM0tWfPHpmm6XQpAAAAYY8AAiyQaZqqrq4mgAAAAMwBAQQAAACAbQggAAAAAGxDAAEAAABgGwIIAAAAANsQQAAAAADYhgACAAAAwDYEEAAAAAC2IYAAAAAAsA0BBAAAAIBtCCDAHTAMQ4ZhOF0GAABAxCKAAHNkGIYyM7OVmZlNCAEAAJgnAggwR16vVz7fgHy+AXm9XqfLAQAAiEgEEAAAAAC2IYAAAAAAsA0BBFgg0zSdLgEAACBiEECABTAMQ8XFJZIIIgAAAHNBAJmisLBQX/jCF5STk6NNmzbp0qVLkqT8/HytWbNGubm5ys3N1cGDB61rBgcHVV5ervT0dGVlZamlpcXqCwaD2rVrl9LS0pSRkaG6ujrb7wlLx+v1yu/3SZL6+/sdrgYAACD8xTldQLh55ZVX9JnPfEaSdPr0aT3xxBN655135HK5dPDgQT322GPTrqmpqVF8fLyuX7+u7u5u5eXlqaCgQAkJCTp27Jg6Ozt148YN9fX1KScnRwUFBcrOzrb71gAAAADHMQIyxXj4kMa+0V62bJn1eHR0NOQ1zc3N2rlzpyQpNTVV+fn5am1tlSSdPHlS27dvlyQlJCRo69atamxsXKryF6S3t9fpEgAAABDlCCAhPPHEE0pOTtZzzz2nX/ziF1b77t279eCDD6qsrExdXV1Wu2EYSklJsR6npqZaB9XN1hduONsCAAAAS40AEsJLL70kwzD0/PPP69lnn5UkHT9+XJ2dnbp06ZI2btyoRx991OEqEW4IcAAAALfHGpBZVFRUaMeOHerr69Pq1aut9meeeUYej0d9fX1KSEhQSkqKenp6tGrVKklSd3e3CgsLJUnJycnq6elRXl6e1ZecnDzr+1ZWVmrlypWT2srKylRWVraYt4dF5VZV1W4VFRXd9u8LAAAiQ2Nj47Sp87du3XKomuhBAJng1q1bGhgY0L333itpbBH65z73OX3mM5/RzZs3lZSUJElqaWnRPffco4SEBElSSUmJDh06pPXr16urq0ttbW2qr6+XJJWWlurIkSMqKSlRf3+/mpubdebMmVnr2L9/v3Jzc5fwTrH4RjU8PCSv10sAAQAgSoT6Arijo0Pr1q1zqKLoQACZ4NatWyotLZXP55PL5VJSUpLOnDmjoaEhPfLII/L7/XK5XLr77rv16quvWtdVVVVp27ZtSktLU1xcnOrq6pSYmChpbBTl4sWLSk9Pl9vtlsfj0dq1a526RQAAAMBRBJAJkpOT9dZbb4Xsa29vn/G6FStWqKmpKWSf2+1WbW2tamtrF6VGAAAAIJKxCB0AAACAbQggCCnUjk6maWrPnj0yTdOBigAAABANCCAIYWxHp6nnlZimqerqagIIAAAA5o0AghA+2dEJAAAAWEwEEMwZIx8AAABYKAII5sQwDBUXl0giiAAAAGD+CCCYE6/XK7/fJ0nq7+93uBoAAABEKgIIMEe9vb1OlwAAABDxCCDAHLEoHwAAYOEIIAAAAABsQwABAAAAYBsCCAAAAADbEEAAAAAA2IYAAgAAAMA2BBDMCYcPAgAAYDEQQHBbE09BBwAAABaCAILbmngKOgAAALAQBBAAAAAAtiGAAAAAALANAQR3zOv1Ol0CAAAAIhQBBHfIraqq3TIMw+lCAAAAEIEIILhDoxoeHmIUBAAAAPNCAAEAAABgGwIIAAAAANsQQAAAAADYhgACAAAAwDYEEAAAAAC2IYAAAAAAsA0BBAAAAIBtCCAAAAAAbEMAAQAAAGAbAggAAAAA2xBAAAAAANiGAAIAAADANgQQAAAAALYhgAAAAACwDQEEAAAAgG0IIAAAAABsQwABAAAAYBsCCDAPvb29TpcAAAAQkQggWDDTNPXd735X3/3ud2WaptPl2MLr9YZsJ5gAAADMLs7pAhC+5homTNPUvn37JEnf/OY3de+99y5lWWFtpmACAACAMYyAYAZuFReXyjAMpwsJa4x4AAAA3BkCCGYwKr9/cE7f6MfKtKtQGPEAAAC4MwSQKQoLC/WFL3xBOTk52rRpk9555x1JY990P/zww8rIyNADDzyg8+fPW9cMDg6qvLxc6enpysrKUktLi9UXDAa1a9cupaWlKSMjQ3V1dbbf01IyDEPFxSVOlwEAAIAIwRqQKV555RV95jOfkSSdPn1af/d3f6d33nlHu3fv1oYNG/Taa6/p4sWLKioqUnd3t5YtW6aamhrFx8fr+vXr6u7uVl5engoKCpSQkKBjx46ps7NTN27cUF9fn3JyclRQUKDs7GyH73RxeL1e+f0+p8sAAABAhGAEZIrx8CFJ/f39WrZsmaSxYLJz505J0kMPPaTVq1erra1NktTc3Gz1paamKj8/X62trZKkkydPavv27ZKkhIQEbd26VY2Njbbdz0wMw2B9BwAAAGzHCEgITzzxhN588025XC7967/+qz788EMFAgElJSVZz0lJSbE+wBuGoZSUFKsvNTV11r633nrLpjsJzTAMZWaOjcC8++5VJScnO1oPAAAAYgcjICG89NJLMgxDzz//vJ599llJY2s5ooXX65XPNyCfb4BF1AAAALAVIyCzqKiosKZWfepTn9LNmzetUZDu7m5r5CAlJUU9PT1atWqV1VdYWChJSk5OVk9Pj/Ly8qZdN5PKykqtXLlyUltZWZnKysoW7+YAAAAwq8bGxmlT52/duuVQNdGDADLBrVu3NDAwYB2kd/r0aX32s59VYmKiSktLVV9fr+eee07t7e16//33tWnTJklSSUmJDh06pPXr16urq0ttbW2qr6+XJJWWlurIkSMqKSlRf3+/mpubdebMmVnr2L9/v3Jzc5f2ZgEAADCrUF8Ad3R0aN26dQ5VFB0IIBPcunVLpaWl8vl8crlcSkpK0r/8y79Ikvbu3auKigplZGRo+fLlOnHihLVAvaqqStu2bVNaWpri4uJUV1enxMRESWOjKBcvXlR6errcbrc8Ho/Wrl3r2D0CAAAATiKATJCcnDzjAvGkpCSdO3cuZN+KFSvU1NQUss/tdqu2tla1tbWLVmc44ARwAAAAzAeL0DEvLF4HAADAfBBAAAAAANiGAAIAAADANgQQAAAAALYhgAAAAACwDQEEWCKmaWrPnj0yTdPpUgAAAMIGAQRYIqZpqrq6mgACAAAwAQEEAAAAgG0IIAAAAABsQwABAAAAYBsCCAAAAADbEECAJXb48GEWogMAAHyMAIJFNfGDtmEYMgzDwWrCQ0NDAwEEAADgY3FOF4Bo4lZxcamuX++UJGVmZkuS3n33qpKTk50sDAAAAGGCERAsolH5/YPyer3yer3y+Qbk8w3I6/U6XZgjGPUAAACYjgACLAHDMFRcXOJ0GQAAAGGHAIIlF4sjAV6vV36/b8Z+1scAAIBYRQDBEhtbF8KH7U8YhqHMzGxlZmbzewEAADGHAIIl9sm6EIxhfQwAAIhlBBDcVm9v77z65vM8AAAARDcCCG5rtm/p5/oNPt/0AwAAQCKAAHNimqZOnTrldBkAAAARjwACzMFiBhCmowEAgFhGAAFsxnQ0AAAQywggmBXf1gMAAGAxEUAwK76ttw+HEwIAgFhAAAFsNNNakgsXLigjI4vDCQEAQNQjgAA2ChVADMNQfn6BhoYGOZwQAABEPQII4DCv1yu/3+d0GQAAALYggAAAAACwDQEEWALsHgYAABAaAQRYAqzjAAAACI0AAgAAAMA2BBAAAAAAtiGAYF5aWlpkmqbTZQAAACDCEEAwL62trQQQAAAA3DECSAxyIjiwKBsAAAASASTmGIah4uIS67E928W6VVW1W4Zh2PBezpppahqjRQAAAGMIIDFm6qnbCx2ZmNv1oxoeHoqJUZDQU9PcKi4ujYkABgAAcDsEEMybaZryeJ51uowIMCq/fzBkAAs1AjU1wBiGQXgBAABRgwCCeevv71cg4He6jIg2PZS4VVRUYgUOwzCUmZmtzMxsQggAAIgKBBBIGvvW/dSpU06XAY1qeNhnBROv1yufb0A+30BMTGEDAADRjwACSQQQAAAA2IMAgkVnz85asYHfJQAAiDYEkAmGhoZUVFSkrKws5eTkqLCwUH/84x8lSfn5+VqzZo1yc3OVm5urgwcPWtcNDg6qvLxc6enpysrKUktLi9UXDAa1a9cupaWlKSMjQ3V1dbbfl92YKrR4+F0CAIBoE+d0AeFmx44d+trXviZJqqur05NPPqk33nhDLpdLBw8e1GOPPTbtmpqaGsXHx+v69evq7u5WXl6eCgoKlJCQoGPHjqmzs1M3btxQX1+fcnJyVFBQoOzsbLtvDQAAAHAcIyATLF++3AofkvTFL35R3d3d1uPR0dGQ1zU3N2vnzp2SpNTUVOXn56u1tVWSdPLkSW3fvl2SlJCQoK1bt6qxsXGJ7gCRhhEOAAAQawggszh48KAef/xx6/Hu3bv14IMPqqysTF1dXVa7YRhKSUmxHqempk7aRnWmPkSuxQkOYyfEz3RKumEYBBQAABB1mII1gx/+8If6wx/+oIaGBknS8ePHtXr1akljU7MeffRRXblyxckS4Zix4FBUVBSyd6ZAMd3YCfH9/f0hX+O//bcvKxAILKBOAACA8EMACaGmpkanT5/W66+/rvj4eEmywockPfPMM/J4POrr61NCQoJSUlLU09OjVatWSZK6u7tVWFgoSUpOTlZPT4/y8vKsvuTk5Fnfv7KyUitXrpzUVlZWprKyskW7R6eNjwLd7ncRnsaCQ+jRCbeKi0v14x//KOSVcw0n/f398vkGFlAjAABYqMbGxmlT52/duuVQNdGDADLFvn371NTUpNdff1133XWXJGlkZER//vOflZSUJElqaWnRPffco4SEBElSSUmJDh06pPXr16urq0ttbW2qr6+XJJWWlurIkSMqKSlRf3+/mpubdebMmVlr2L9/v3Jzc5fwLp01frq3JL377tUIDSEzGZXfP6iPPvpoWo9pmiouLpnW3tfXZ0dhAADgDoX6Arijo0Pr1q1zqKLoQACZ4L333pPH49H999+vzZs3KxgMKj4+Xq+//roeeeQR+f1+uVwu3X333Xr11Vet66qqqrRt2zalpaUpLi5OdXV1SkxMlCRVVFTo4sWLSk9Pl9vtlsfj0dq1a526xWmcWGMwfrr3+M/RFUBm1t/fL7/fF7IdAAAgVhBAJli9evWMO121t7fPeN2KFSvU1NQUss/tdqu2tla1tbWLUuPimn0tw0JwgB4AAABCYResmDbbWoaFYfemuQs1XYtpWQAAIFoRQIAlcCfTqkIFkP/8z/9czHIAAADCBgEEjorWqVoHDvxsQdeHCiUAAADRgAACR0XrVK2RkeFFf819+/bdwRkjAAAA4YkAglktZkCI1tGOuVrouo4TJ04QQAAAQMQjgGAWY7tkLVYIidbRjrliu10AAAACCGY1tksW6xEAAACwWAggQBj6zW9+43QJAAAAS4IAAoShy5cvO10CAADAkiCA4LaLw1m7ED5YhA4AACIdAQS3XRw+05kWM10X64vNl45bxcWlMgzD6UIAAADmjQCC2wp9poVbHs/ukO2LuXMWJhqV3z/I7xYAAEQ0AgjmaVSBwFDIdnbOAgAAwEwIIAAAAABsQwCBo1paWiJ2YXVvb69OnTq14NdhtAgAAMQSAgiWxFx3zmptbY3YAOL1ehclgDQ2Ni1CNQAAAJGBAIIlMdPOWZhuZCTgdAkAAAC2IYBgSYTeOWvM7c4diVZMtQIAACCAYEFc87oqVreRff/9950uAQAAwHEEECxA0OkCIoibtR4AAACS4pwuAIgNoxoZGXW6CAAAAMcxAgIAAADANgQQYJ5idS0LAADAQhBAgHlxy+PZ7XQRAAAAEYcAAszLqAKBIcfe3TAMGYbh2PsDAADMFwEEiDCmaSozM1uZmdmEEAAAEHEIIECE6erqks83IJ9vgHUoAAAg4hBAYJuWlhaZpjmtPVQbZtbf3+90CQAAAPNGAIFtWltbQ4QNt4qLS6NsKtH8Toifj8OHDxPgAABARCGAwGGj8vsHo2wqkX0nxDc0NBBAAABARCGAAAAAALANAQRqaWlRb2+v02Vgjv7rv/7L6RIAAADmjQACtba22joFKrqmW9nv5z//P06XAAAAMG8EENjKNE15PM86XUZEGxkJOF0CAADAvBFAYKv+/n4FAn6nywAAAIBDCCAIO4ZhRNm2vEuLXbAAAEAkIYAgrBiGoczMbGVmZhNCQpp6xkg0nqMCAACiGQEEYcXr9crnG5DPN8Bi9ZCmnjESjeeoAACAaEYAAQAAAGAbAggwb1OnQwEAAOB2CCDAHIRe6D11OhQAAABuhwCCsBKOOzoZhqHi4hKnywAAAIgKBBCEjXD9oO/1euX3+5wuAwAAICoQQBA2pn7QD8fREAAAACwMAQRhivMtAAAAohEBZIKhoSEVFRUpKytLOTk5Kiws1B/+8AdJUm9vrx5++GFlZGTogQce0Pnz563rBgcHVV5ervT0dGVlZamlpcXqCwaD2rVrl9LS0pSRkaG6ujrb7yuczP28Cs63AAAAiEYEkCl27Nihzs5O/fu//7u2bNmiJ598UpK0e/dubdiwQdeuXdPRo0dVXl6ukZERSVJNTY3i4+N1/fp1nT17Vk8//bT6+vokSceOHVNnZ6du3Liht956Sz/5yU909epVx+7PWW55PLudLiIq9fb2Ol0CAADAnBBAJli+fLm+9rWvWY+/+MUvqqenR5L0yiuvaOfOnZKkhx56SKtXr1ZbW5skqbm52epLTU1Vfn6+WltbJUknT57U9u3bJUkJCQnaunWrGhsbbbun8DKqQGDI6SKiUmdnp9MlAAAAzAkBZBYHDx7U448/rg8//FCBQEBJSUlWX0pKirU+wTAMpaSkWH2pqalz6gMWh1tVVbv5dwUAACICAWQGP/zhD/WHP/xBP/zhD50uBbiNUQ0PD7FeBgAARIQ4pwsIRzU1NTp9+rRef/11xcfHKz4+XnFxcbp586Y1CtLd3a3k5GRJY6MhPT09WrVqldVXWFgoSUpOTlZPT4/y8vKmXTeTyspKrVy5clJbWVmZysrKFvU+AQAAMLPGxsZpU+dv3brlUDXRgwAyxb59+9TU1KTXX39dd911l9VeWlqq+vp6Pffcc2pvb9f777+vTZs2SZJKSkp06NAhrV+/Xl1dXWpra1N9fb113ZEjR1RSUqL+/n41NzfrzJkzs9awf/9+5ebmLt1NhhAO356zkBoAAISTUF8Ad3R0aN26dQ5VFB0IIBO899578ng8uv/++7V582YFg0HFx8frwoUL2rt3ryoqKpSRkaHly5frxIkTWrZsmSSpqqpK27ZtU1pamuLi4lRXV6fExERJUkVFhS5evKj09HS53W55PB6tXbvWydsMKRx2pwqHEAQAAIClRQCZYPXq1RodHQ3Zl5SUpHPnzoXsW7FihZqamkL2ud1u1dYQO9G5AAAgAElEQVTWqra2dtHqXApO707FqecAAACxgUXoMcb5aU6uEG1jp54zArIwzv9tAQAAbo8AEmOc/5AfDNE2dur5Rx99ZHs10cT5vy0AAMDtEUAAAAAA2IYAgohhGAaH7QEAAEQ4AggigmEYyszMVmZmNiEEAAAgghFAEBG8Xq98vgH5fAOsdQAAAIhgBBCENXZ2AgAAiC4EEIQ1RjsAAACiCwEEAAAAgG0IIAAAAABsQwABokRLS4tM03S6DAAAgFkRQIAo0draSgABAABhjwACSS6nC5Ak9ff3O10CAAAAlhgBBJKCThcgSTpw4GdOl2AxTVN79uyJyBEFTowHAADhjACCsDEyMux0CRbTNFVdXR1xAcQ0TWVkZGnNmvvV3t7udDkAAADTEECAKNLf36+hoUGNjAR07do1p8sBAACYhgCCqBfJ06nuFAc3AgCAcEcAQdSL1OlUd84tj2e300UAAADMigCCiHP48OEYCBPzMapAYMjpIgAAAGZFAEFE6O3ttX5uaGgggAAAAEQoAggigpNrGyaGHwAAACwMAQQxY76jJpG6sLulpYWRIgAAEHYIIIh6Yx/C3SouLr3jA/oi+QN8a2trRNcPAACiEwEEUc00TR09elTSqPz+wUmjGbNtzzsxtETWCIjL6QIAAABmRQBBVDNNU6dOnZqxb6btefv7+zUeWj766KMlrnIxBZ0uAAAAYFYEEGCK2UILAAAAFoYAAkxBAAEAAFg6BBCENXZyAgAAiC4EEIS1mXZyIpQAAABEJgIIItD8ttQFAACA8wggiAiTt8KdvqXuYmJ0BQAAYOkQQBD2TNOUx/PsrP0znecx19cfZxiGiotL5vU6AAAAuD0CCMJef3+/AgH/jP2znecxm7Hnu7Rly+Nqb2+XNDbS4vf7FlIuAAAAZkEAQdhbqqlWY4cNBjU6GtCPfvSjKJt6NXYienTdEwAAiAYEEIQ9j2f3kr/HTLttRa6xE9HHQhYAAED4IIAg7AUCQ3N6XnQFCAAAgOhEAEHEGwsebM0LAAAQCQggCHOuGXt6e3sljU8zGtua9+rVqzbVFRk4SR4AAIQbAgjCXHDGnlCL05dqwXqkir61LQAAINIRQAAAAADYhgAC3MZHH33kdAkAAABRgwCCqLYY048IIAAAAIuHAIKoZRiGiotLnC4DAAAAExBAENFM09SpU6dC9nm9Xvn9PpsrCj8sQgcAAOGEADLBd77zHd13331yu936/e9/b7Xn5+drzZo1ys3NVW5urg4ePGj1DQ4Oqry8XOnp6crKylJLS4vVFwwGtWvXLqWlpSkjI0N1dXW23k8smBpA2AVrKs5HAQAA4YUAMkFpaal++9vfKjU1dVK7y+XSwYMH1dHRoY6ODn3nO9+x+mpqahQfH6/r16/r7Nmzevrpp9XX1ydJOnbsmDo7O3Xjxg299dZb+slPfsI5FYtoethwq6pqNx+2Jxk7H4VgBgAAwgUBZIKNGzfq85//vILB6WdPjI6OhrymublZO3fulCSlpqYqPz9fra2tkqSTJ09q+/btkqSEhARt3bpVjY2NS1R9rBkLG5OnF41qeHho0T9sswgdAABg8RBA5mj37t168MEHVVZWpq6uLqvdMAylpKRYj1NTU61v4Gfrw0KNhY2xU9CXVmNj05K/x1JjHQgAAAgXBJA5OH78uDo7O3Xp0iVt3LhRjz76qNMlYRHMdaRkZCSwxJUsNdaBAACA8BHndAGRYPXq1dbPzzzzjDwej/r6+pSQkKCUlBT19PRo1apVkqTu7m4VFhZKkpKTk9XT06O8vDyrLzk5+bbvV1lZqZUrV05qKysrU1lZ2WLdUswzDEMez7PT2nt7ex2oZql9sg5kLv/+AADAmMbGxmnT52/duuVQNdGDAHIbIyMj+vOf/6ykpCRJUktLi+655x4lJCRIkkpKSnTo0CGtX79eXV1damtrU319vaSxRe1HjhxRSUmJ+vv71dzcrDNnztz2Pffv36/c3Nylu6koMt/1Hl6vV4GAf9FeDwAARJ9QXwB3dHRo3bp1DlUUHQggE+zcuVNnzpzRBx98oMLCQt111126dOmSHnnkEfn9frlcLt1999169dVXrWuqqqq0bds2paWlKS4uTnV1dUpMTJQkVVRU6OLFi0pPT5fb7ZbH49HatWudur2o5PHsdroEAAAA3AECyASHDh0K2d7e3j7jNStWrFBTU+hFym63W7W1taqtrV2U+jBdIDC0aK8VeqG2S9L0XdEAAAAwPyxCBySNL9SePgWL8AEAALCYCCCIKTMvMh9bqM2ZHwAAAEuLAIKoZBhGyClVLDIHAABwFgEEUefKlSvKzMxWcXGJ06WEFdM0OQsEAAA4jkXoiDovvviifL4Bp8sIO8XFpXK7XXr33aucBwIAABzDCAiizptvvjnva/v7+xexkvDi9w/K5xtgGhoAAHAUAQSY4MCBnzldAgAAQFQjgMSY2Pj223XbZ8y0G9bIyPBiFwMAAIAJCCAxxDAMeTzPOl2GDW5/dkdsBDEAAIDwQwCJIV6vV4GA3+kyAAAAEMMIIAAAAABsQwBBzDFNU6dOnXK6DAAAgJhEAEHMIYAAAAA4hwACAAAAwDYEEAAAAAC2IYAAMWamM1AAAADsQABBTPF6vTJN0+kyHMUZKAAAwElxThcA2Mctj+dZuVy3Pyk9mrW0tKigoED33nuv06UAAIAYxAgIYsioAgG/hoeHZuiPjWDS2tqqjo4Op8sAAAAxigACWIJOF2ATt4qLS2UYhtOFAACAGEQAAWLOqPz+QdaCAAAARxBAAAAAANiGAALEqFjfDQwAADiDAALEJNaBAAAAZxBAgJjEOhAAAOAMAggAAAAA2xBAAAAAANiGAAIAAADANgQQAAAAALYhgAAAAACwDQEEAAAAgG0IIAAAAABsQwABAAAAYBsCCBDD9u3bJ9M0nS4DAADEEAIIEMNOnDhBAAEAALYigAAAAACwDQEEAAAAgG0IIAAAAABsQwABYhxrQAAAgJ0IIEBMc2nLlsfV3t7udCEAACBGEECAmBbU6GhA165dc7oQAAAQIwggAAAAAGxDAAEAAABgGwJIDOnt7XW6BAAAAMQ4AsgE3/nOd3TffffJ7Xbr97//vdXe29urhx9+WBkZGXrggQd0/vx5q29wcFDl5eVKT09XVlaWWlparL5gMKhdu3YpLS1NGRkZqqurs/V+pvJ6vY6+PwAAAEAAmaC0tFS//e1vlZqaOqn9e9/7njZs2KBr167p6NGjKi8v18jIiCSppqZG8fHxun79us6ePaunn35afX19kqRjx46ps7NTN27c0FtvvaWf/OQnunr1qt23BQAAAIQNAsgEGzdu1Oc//3kFg8FJ7SdPntTOnTslSQ899JBWr16ttrY2SVJzc7PVl5qaqvz8fLW2tlrXbd++XZKUkJCgrVu3qrGx0a7bAQAAAMIOAeQ2PvzwQwUCASUlJVltKSkpMgxDkmQYhlJSUqy+1NTUOfUB4eT69eu6cOEC/z4BAMCSI4AAMc+l6upqfelLG5WenkUIAQAASyrO6QLCXWJiouLi4nTz5k1rFKS7u1vJycmSxkZDenp6tGrVKquvsLBQkpScnKyenh7l5eVNu242lZWVWrly5aS2srIylZWVLdp9AZ8Yn3I4Kr9/UF6vd07/TgEAiHaNjY3Tps/funXLoWqiBwFkDkpLS1VfX6/nnntO7e3tev/997Vp0yZJUklJiQ4dOqT169erq6tLbW1tqq+vt647cuSISkpK1N/fr+bmZp05c+a277d//37l5uYu6T0BMzFNU4ZhEEIAADEv1BfAHR0dWrdunUMVRQcCyAQ7d+7UmTNn9MEHH6iwsFB33XWXrl27pr1796qiokIZGRlavny5Tpw4oWXLlkmSqqqqtG3bNqWlpSkuLk51dXVKTEyUJFVUVOjixYtKT0+X2+2Wx+PR2rVrnbxF4LaKi0vldrv07rtXCSEAAGDREUAmOHToUMj2pKQknTt3LmTfihUr1NTUFLLP7XartrZWtbW1i1YjsNT8/kFJYioWAABYEixCBwAAAGAbAkiMME1Tp06dcroMAAAAxDgCSIwggAAAACAcEEAAAAAA2IYAAiCk3t5ep0sAAABRiAACIKTOzk6nSwAAAFGIAAIgBLeqqnbLMAynCwEAAFGGAAIghFENDw/J6/U6XQgAAIgyBJAYYZqm0yUAAAAABJBYYBiGiotLnC4DAAAAIIDEAq/XK7/f53QZAAAAAAEEAAAAgH0IIAAAAABsQwABAAAAYBsCCAAAAADbEEAAAAAA2IYAAmBGnB8DAAAWGwEEwAzcKi4ulWEYThcCAACiCAEEwAxG5fcPqq2tzelCAABAFCGAAJiFW9/+9nZGQQAAwKIhgACYxaiGh4fk9XqdLgQAAEQJAggAzJNhGDOODpmmqT179rCQHwCAKQggAG7LNE2mYU1hGIYyM7OVmZkd8nfT0dGh6urqSQGEUAIAAAEEwBwUF5fO+EE7Vnm9Xvl8A/L5BiZNUTNNU5WVlSoqKrEeT+yrrq4mhAAAYhoBBMBt+f2D0z5oIzTTNHXgwAEND/skSW+//fa0wNHQ0KCOjg6nSgQAwFFxThcAIHLwrX1oly5d0sjIiJqamvTBBx9M6HHrBz94XoHAsDZs2KBTp05Z7cXFpbp+vVPJyclOlAwAgGMIIADmyK2iohI988xOPfvss7r33nudLsgR49PQent7P25xadu2b8vtdmt0dMRqk4KSRhUIjEoaG/X4JICMnbHi9XonBZDx1yaUAACiGVOwAMzRqIaHfTpw4EDMjoQYhqGMjCzdd98a/epXv/q4NSgpOCF8jLdN9kn4+MTzzz+v7du365133lFlZaUyMmZe1A4AQLRgBATAHRj7Zj8WA4hpmvrHf/xHDQ0NSnLr4MGf3cHV4yMik7W2npYU1F/91V/pwIEDVvvUkREAAKIJAQTAHRj7EN3f3+9wHfYzTVMNDQ0fPxrVyMjolGeEDhljZm//6KOPFl4gAAARgilYAHAb7e3t+ulPf3qbZ80UMm5vLNC5rMeHDx+OyVEmAEBsIIAAwBQTDww0DEMbN35FL7/88gJf1TVjz8DAgCYGmIaGBgIIACBqMQULACYYDx8NDQ26//77dfbsWfn9vkV45bmOkMTuOhsAQGwggACAxna4eu+99/Thhx9aaz22bduuQGBoyd/7N7/5zYRHsbvOBgAQGwggAGKeYRhKT8+Q3z+suLhPWe1j4WO2xeWL4/Lly0v6+gAAhBPWgAC4YydOnNB3v/tdmaY5ab1EpPJ6vfL7hzR2cODUEY/x8DHzGo6lZBgG54IAAKIKIyAA7thrr72m1157TTdv3lQwGNSJEye0ZcuWKD8dfWlHQUIxDEOZmdmSpHffvcrZIACAqEAAAXCHPpmSdPz4cWdLWSDTNFVTU6MPPvhgQuvST7mai5aWFn3uc5+TzzcgicMJAQDRgwAC4A45/+F8ocanNHm9Xu3bt29Kb1DhEEJaW1v15z//2Xp8+PBh7dmzJ8pHmQAAsYA1IAAW4JN1EZGyBmR8WlNmZvYsNYdHyPr1r89bP3M2CAAgWhBAACzA+Ad1t4qLSyNisbTX65XPNyCfb0Bvv/22nFpcPjeTgxAnpAMAogEBBMAiGJXfPyiv1+t0IXfk+vXrCpfRjrlgFAQAEA0IIDGgt7fX6RIQI8L9w7Fpmjp8+LD1uLGxycFq5odREABApCOAxIBI+1YakcqtoqKSsJ6GZZqmdcq5JI2MBBysZn4YBQEARDoCCIBFMqrhYV/Ynurd3t6un/70p06XMU+uSf+tqamRaZocUggAiEgEkDuQmpqq7Oxs5eTkKDc3V6+88oqksSlODz/8sDIyMvTAAw/o/PlPdq4ZHBxUeXm50tPTlZWVpZaWFqfKB2zg0pYtj6u9vV1S+JzibRiGNm78il5++eUJreG8+Hyq4KT/NjY2qqOjw9rNKxx+xwAAzBXngNwBt9utkydP6q//+q8ntX/ve9/Thg0b9Nprr+nixYsqKipSd3e3li1bppqaGsXHx+v69evq7u5WXl6eCgoKlJCQ4NBdAEspqNHRgL7//e/rmWeeUWnpVrlcLsdP8fZ6vfL7fZp8vkfkLD4P5ejRoxxSCACISIyA3IFgMKhgcPqHlpMnT2rnzp2SpIceekirV69WW1ubJKm5udnqS01N1ebNm9Xa2mpf0YDtXDp37pyKir6uoaFB+XwDunr1qvbs2TNt7cJijJDM9BqGYeiXv/ylvv3tb+vKlSsft0Z26BgzNnJz6tQph+sAAGB+GAG5QxUVFZKk9evXa+/evXK5XAoEAkpKSrKek5KSYn0gMgxDKSkpIfuA6DT2IX9kZNhq6ezsVHV1tbZs2aLh4U/aMzOzJWneIyTjhwpK0q9//f905swZ7dixQ93d3crP3yy/3y/JpV/84vgC7ifcTA9RLEoHAEQSRkDuwPnz53Xp0iV1dHTos5/9rJ544glJCjkqAuATHs9uSdKlS5esdQuXL1+2DgSc705tV69etV7j2rVrqq6ulsfj0aZNBfL7hzT2YX1UgYB/8W4mbIyvYYmcQyABAJAYAbkjf/mXfylJWrZsmf7+7/9emZmZSkxMVFxcnG7evGmNgnR3d1vf5qakpKinp0erVq2y+goLC2d9n8rKSq1cuXJSW1lZmcrKyhb7lgBbBAJDkqT33nvPWrfQ399/R68x/gF74kjJxOAy/vPkhebRbPyLj08OgWQdCAAsrsbGRjU2Nk5qu3XrlkPVRA8CyBwNDAxoeHjYCgYvv/yycnJyJEnf+MY3VF9fr+eee07t7e16//33tWnTJklSSUmJDh06pPXr16urq0ttbW2qr6+f9b3279+v3Nzcpb0hwAF3GjrGTZxqFXq6llsez7MLrA4AgMlCfQHc0dGhdevWOVRRdCCAzNEHH3ygr3/96xodHVUwGNSaNWv0i1/8QpK0d+9eVVRUKCMjQ8uXL9eJEye0bNkySVJVVZW2bdumtLQ0xcXFqa6uTomJiU7eCuCYgwd/Nq/rxqdrSWPTrqYHkGidZjV3V65c4YsLAEBEIIDM0X333aeOjo6QfUlJSTp37lzIvhUrVqipqWkpSwPC3Cdb3wYCw7M+0zRNHT58WDt27NC9994rSbpw4YKKir5uPWf29SITt9mNJW59+9vbtWnTJqZhAQDCHovQASyx0IFgYpA4fPiwTNOUaZqqrq5WR0eHtb3upk2bNTw8ZD332LFjeuedd1RZWak//vGPc3qv6Deq4eEhtbW1sRgdABD2GAEB4IiJazYaGhokScXFxR//t1Rut0v/9E8nJ4WP8TNG+vr69LvfXbSmOmLME09sk9sttbae0oMPPshoCAAgLBFAADhi6pqNhoYGa1TE7x+UJHV1dU25amyE43e/+50kaWRkdGmLjDDBYEAjI2MBLi5umeMn0AMAEApTsACEjamne89316zY5lIgMLSg81UAAFhKBBAAYcQ16REBZD5idR0MACBSEEAAhIHx4BGc8LNLP/3pPofqiQ4/+MEPZJqm02UAADAJAQRAGAiG+Dkovs1fCJdOnz6ts2fPsjMWACCsEEAAICqNhbcdO/6XMjOz1d7erj179jAiAgBwHAEEAKLY8PDYgvS9e/equrqaAAIAcBwBBABiwNQdxgAAcAoBBAAAAIBtCCAAEPU+2d748OHDTMMCADiKAAIAUe+T3cQaGhoIIAAARxFAAAAAANiGAAIAMWNsKtYbb7zB2SAAAMcQQAAgZoydNF9V9azWrLlf7e3tThcEAIhBBBAAiCljJ8yPjAT0/e9/n/UgE5imqT179qi9vX3SCJFhGNbjiT9LUnt7uyorK/k9AsAdiHO6AACAE1w6d+6cnn76aa1Zs0Yej0f33nuv00U5yjRNVVdX60c/+rHcbpfeffeqPvjgA33pSxu1bFmc3nzz/6qg4KsKBkfV2Piy4uLiVFRUrJGRgL761a8qNzdXhw8f1o4dO2L+dwkAsyGAAEBMGtsZ6/Tp05KkgoICPfLII04WtGTGRyySk5Nn7PvUpz6lw4cPS5L8/kFJ0tWrV3XgwAEFAn4FAn794Ac/kM83IMml4uISxcUt08hIQJLU1dWlV199VQ0NDdqwYYMOHz6sxx9/XC+99JLKy8v1N3/zN3dUFwBEM6ZgAUDMc6uoqEQXLlyYcapRpDIMQ5mZ2crMzLbuaeI9jvd1dHSooaFh0rUHDhzQ2bNnrcevvfbaxz8FJY0qEBi2+rq7u63rvV6vqqur1dbWpgMHfqaNGzdNm9J14cKFSXUBQCwhgABAzBvV8LBPX/nKZq1Zc7+OHj2qjIwsZWZmq729XXv27Im4NQ7jQcPr9crnG5DPN6DXX3/duq9f/vKX2rVrl9X3/PPPa+KBjZImhY/b2b//oHX9sWPHJEn//M//LGlUfv+gLl++bNWVmZmtTZvyrff2er2LccsAEDGYggUAkCQFAkOSpKee2mFNLbp27Zqqq6u1ZcuWiFnXMP4hX5L+6Z9OWu1PPfW/rHv8H/+jSMHg6Mc9Lv3bv/3blFdxaeIBjrNzaXQ0YD06d+6cJOnNN9/8uMWtxx//uv7n//ym8vPzrWlcABCrCCAAgEnGw4ekiPx2fnzUQxpbmzFuPHxIUjA4MuGKUEFjruEj1HOnhpdRBQJDOnr0Rb344kszvj5rQgDECgIIAGAGbnk8u50uYpqJC8dramokSX/7t3+rVatWKTk5Wb29vdZz+/v7P/7pTkY0Fio4w/sFpwSfMVeuXNHIyIi129a1a1cJIQCiGgEEADCDUWvUwDRNGYYx6YOxE9/YT51etW/fPknSCy/USxrVt771TeXk5FjPH9/l606mUy1OUJnra7i1bduT+tKXvmjttnX58mUCCICoxiJ0AMBtFRWV6L771uiXv/ylpOm7S9ll4qLyF154wWr3+wfl9/t19OhRa8G35NLbb799h+9g1yjJuFEFAn79+te//vixW8XFpdMW/0fLrmQAIBFAAABzMDzs0+hoUF//eqkuXLigN95447a7OM12gvhcjZ9OHmoXrrNnz01pGZv61NBwZMLjSDO2a9b44v+Ojo5ZtxIGgEjEFCwAwByNanh4SF/5yuZJZ2CMH7r3q1/9SuXl5ZKkl19+Wf/7fx/WyMiwWltP6Rvf+FtJ0rvvjq1vME3TOjV8eHjstcbbf/zjH6u8vFyrVq3S5cuXVV1dbQWRK1euTKhnoYvHw9fY6I5Ljz66Rf/9v3/VWlR/+fJllfz/9u48Nqry3+P4Z5YCJigJgtJQumBbuCrIYmUplhZI0Yv6o4iSiwuCXBavu/7M/cfEgktyNVy86k8DIspaSHEN2qDUNE2sWiFsWkCBUqyERf5BKJ3OzPf+MZ3ThYIs5XQY3q9k0jPnOXPmOedJ6flwzvM8k++X1HQuAeByQwABAJyX5qNJSdKiRYv0/vsfKBwO6p133lMkqASc8rKyMucCuqqqKYAUFhYqJSVFc+f+lyRp7tzZSk5O1sKF/6e3335XZiav1+t8x19//aW1a4vdOcgO1XJY4A0bNjjLmzdvds7l0aNHCSAALksEEADAWZxbp+zoPBgNDafUco4LjxYs+F/nXUVFhQKBgIqKiiRJs2bNUTAYCSsLFy6Uz5eg5p3fQ6GmOqxateqij+byYGdYll56aZ6zfOTIEb300kun3UUCgFhHAAEAnMXfhY/mASW63PIC2qypvLBwnrNekhM+okKhBp3uTMPaXmlaTni4aNEiffzxx0pJSdFjjz0uSSot/Ua9e/cmiACIaQQQAMBFOPP/1p9924v5nitVy3Pw8ccfS/Jq1qzZTp+c228fLb8/wZlLhMkNAcQiRsECAMQAz99vgjaEWwwIEAo1qL7+pKqqqlRRUaHMzP7KzOynioqKDqxj7GJEMaBjEEAAADGAOxztqaKiQrm5Y1RfX6f6+oByc8dyod1KR81lA4AAAgBAnIn0tQkETjW+j8wtsn37dtXU1KiioqLFBXc83AVoPV9M82OKllVWVrY4zqqqqjPOZdP8M63PV+v9Azh/9AEBACCutHU3KTKniNfrVThs6ty5k3bv3ilJ6tfv3yRdXvOK1NTUqLa2Vn6/X+vXr9eIESOc+WJmzpypnJxcmYW1evUqderUSYWFhXrttf+R1+txOurv3LnT2d/WrVvVo0cPHTp0SIsXL9bJkye1cuVKzZ//SovzlZycrIqKCuXljZXH49GuXVXOPpqfu+bz3CQmJrp6boDLAQEEAIC4FxmdLBwOS5Lq6+u0ceNG+f3+FpMcRv1dEGmrc/v5XHQ3/3w0TEhS7969JUm1tbXOctTWrVtVWlqq/Px83X33PxQKheTxSGZh3XHHHZIiI4MlJSU5xzRp0mT5/QmSpECgTpKUk5OncDgojyf6EIhHM2bMVKdOCTKTGhqa5rmJjjpWX1+nsrIypaena/ToPGebjRs3OiOQ7dpVpUOHDmnVqlUaMmSICgsLlZWVpQkTJpzzOQSuFAQQAACuQDNmzJTP52t859U99xTI45F8Pr8efPA/lJOToy1btmjq1KkKBoM6evSovvjiC5mZli9fJY+n5bC/0cklo48vJSYmnjFo5OWNVUNDQBMm/LtKSjY485h06hQNCw3yej3y+ztJCiscjg7ZbCorK3OGazaLDF5QUlKi6FDNTUM9S83nlIlqeh9q/BkJZ4FAdH1bQz57NG3aI/L5/M2Gjvbo0Uf/U2aR/SxdulTz57+sUCgon88vyauCgskqKyt19hI9V9H+J9LldecJaC8eaxqgHR1s8+bNGjp0qDZt2qQhQ4a0235XrlypBx98sN32BwC4EkQuxD0ev8zCOn2OFykhobO8Xo++/bZUnTt31tChQyVFAsHatWu1YsVq57Gn3Nw8BQIN8vv9p83/ci71iG3RUdzamrPGJyksyaOEBL/uvXeSfD6fVt++yb4AAAt8SURBVK5cKUnt/jcfl96lul67knAHBAAAtCFyEW0WbLau5cSTkUeRPMrOHqVRo7Kd8pKSEn3wwVJn2/nz5zt3GM4vfDTVI7adbT6cpjstDQ0NKioqalHavP/JggUL1LVrV82bN++0x9h4ZAvxhAACAADOUVsX2pHZ7svLy52ShQvfarHtV1995UrtYt/pYWrGjEfl8Xjl9foaHy0znThxQs8884wkaf369Ro2bJjuvvsfkkwVFd8pKytL0ul9aaLLQKwjgAAAgHYWarZ8OTxC1ZFMZiGFQk3nbPXq1Vqzplher0fBYEDPPfec0+9l/fr1CgYjd6XGjBknKdIXZ8yYcTIL69tvSzVixAhnUIAJEybo+uuvd4IJoQWxgHlAAADAJUT4uBDhcEPj42peLVz4ZuNajwoLCzVy5Cjl5OQ685j8+OOPOnXqpOrrAxo9Ok9LlizR888/r8LCQo0aNVoZGZmaMmWKvvjiC2Vm9ldaWl+9/vrryszsf1ETMbY1H0rzda3L2yprPYfLmfZ7tvVt7Ts6f8vZ6lhZWalHH31UlZWV53V8zeuKC0Mn9BhCJ3QAAHB+mneAb+t903Yej6dxQIGWd6WWLVum9PR0+f1+rVq1SmPGjFGPHj2ckc+uvvpqPf/882poaGgxRHJ0JK/S0m8kSUePHlVBwb2STEuWvK+ZM2fJ5/Nr9+4qZ3uzsP71r3c0e/Zc+Xx+rVu3VnfddZeWLVumzZs3a8CAAXrsscdlFtakSQWNc9eElZWVpX/+878lhXX33XdJknr27KlJkybpww8/1CeffK5QqEGLFy/S3LmPKRBocEZ58/sT9O233zjHGx2FzePxKRQKyu9P0OTJBZKkZ599Vtdff71qa2udu0qrV69Sr169JEXuOoXDYQUCp+iEfjEMl9yvv/5qI0eOtMzMTLvtttvsl19+aXO7TZs2mSTbtGlTu37/ihUrokOX8OLFixcvXrx4tXh5PH6TvObxeE3ytHpFthk3bpz5/Z1N8pjH47P8/HynzOfrZJLXfD6/s27AgAHOcn5+vt1xxx2N773m9TZtN3z48Mbv8Tau87T62Xq59Tpfs2Wv+f0JZzlGn/n9/jbLm+qWYF6vv/FcRL8nUr+EhM4ttm/v67UrCX1AXDB79mzNmTNHDz30kNatW6dp06bpxx9/7OhqAQAAOCOdne2ZmG++2ajIdbdkFtKGDRucslAo0Pgz7KxrPrHlhg1fO5+NzOvStN33338frcUZfrZebr2ueX+jsILBcBvbNh1jMNhmcZt1a12f5pNU4uLQB+QSO3LkiDZt2qQHHnhAknTvvffqwIED2rt3bwfXDAAA4FydJZ1c0s8iHhFALrEDBw4oMTFRXm/TqW4+8gQAAABwJeERrBhSV1cnSaqqqmq3fR45ckTfffddu+0PAAAATddtOH8EkEusT58+OnjwoMLhsHMXpKamps0xt6urqyWJEasAAABiXHV1tbKzszu6GpclAsgl1rNnTw0ZMkTLly/XtGnTVFxcrD59+qhv376nbTt+/HitWLFCqampuuqqqzqgtgAAADiburo6VVdXa/z48R1dlcsW84C4YPfu3XrkkUf0559/qlu3blq6dKluuummjq4WAAAA4DoCCAAAAADXMAoWAAAAANcQQAAAAAC4hgASI3777TdlZ2erX79+GjZsWLsOxQv31dfXq6CgQP3799fgwYM1fvx47dmzR1JkaOQ777xTmZmZGjhwoMrLy53P1dXVaerUqcrIyFD//v21bt26jjoEXKClS5fK6/Xq888/l0R7x6tAIKAnnnhCmZmZuuWWW/Twww9Lor3j1ZdffqmhQ4dq8ODBGjhwoJYtWyaJ9o4XTz31lNLS0uT1erVt2zZn/YW2r5npiSeeUHp6ujIzM/XOO++4ejyXBUNMGDNmjC1btszMzIqLiy0rK6uDa4SLcerUKfvqq6+c92+//bbl5uaamdn06dOtsLDQzMwqKystKSnJgsGgmZnNmzfPpk+fbmZm+/bts+uuu86OHTvmcu1xoaqrq23kyJE2cuRI++yzz8zMbMaMGbR3HHr66aftySefdN4fOnTIzGjveNW9e3fbsWOHmUV+z7t06WJ//fUX/57HifLycqutrbW0tDTbunWrs/5Cf58/+ugjGzdunJmZHTt2zFJSUuyXX35x85BiHgEkBhw+fNi6detmoVDIWderVy/bs2dPB9YK7emnn36ytLQ0MzPr2rWrc7FiZjZs2DDbuHGjmZnddNNN9sMPPzhlU6ZMsSVLlrhbWVyQcDhs48aNs82bN1tubq4TQGjv+HPixAm75ppr7Pjx46eV0d7xqUePHlZeXm5mZlu3brWkpCQLBAK0d5xJTU1tEUDOp33vv/9+p30nTJhga9asccpeeOEFe/HFFy919S8rPIIVAw4cOKDExERnokJJSk5OVk1NTQfWCu3pzTff1MSJE3Xs2DEFg0Fdd911TllKSorT1jU1NUpJSWmzDLFtwYIFuv322zV48GBnHe0dn/bs2aPu3bvrlVdeUVZWlkaPHq3S0lLaO44VFRWpoKBAqampysnJ0UcffaTjx4/T3nHsfH+fU1NTz6kMEUxECFxir776qvbs2aNFixbp5MmTHV0dXAI///yz1q1b1+L5YMSvYDCo/fv36+abb9Zrr72mLVu2KD8/Xzt27JAxsn3cCYVCevnll/Xpp58qOztbP/30k+655x5t2bKF9gYuEHdAYkCfPn108OBBhcNhZ11NTY2Sk5M7sFZoD2+88YY+/fRTlZSUqEuXLurevbv8fr8OHz7sbFNdXe20dUpKivbv399mGWJXeXm59u/fr4yMDKWlpen777/XrFmztHbtWto7DiUnJ8vn82nq1KmSpEGDBik1NVXbt29XQkIC7R1ntmzZooMHDyo7O1uSdOuttyopKUnbtm2jvePYxfy9Tk5Opu3/BgEkBvTs2VNDhgzR8uXLJUnFxcXq06eP+vbt28E1w8VYsGCBioqK9PXXX+vqq6921t9333169913JUmVlZX6448/NHr0aEnS5MmT9d5770mS9u3bp7KyMk2cONH9yuO8zJkzR7W1tdq7d6/27dun4cOHa/HixZozZw7tHYeuvfZajR07ViUlJZIibVddXa0bb7yR9o5D0f8k3Llzp6TIqJV79+5V//79ae84d6Hte99992nx4sUKh8M6duyY1qxZoylTpnTMQcSqju6Egohdu3bZiBEjLDMz07KyspzRNnB5+v33383j8Vh6eroNHjzYBg0aZMOHDzezyGg5+fn5lpGRYTfffLOVlZU5nztx4oRNmTLFbrjhBuvXr58VFxd31CHgIuTl5Tmd0Gnv+LR3717Ly8uzAQMG2KBBg+yTTz4xM9o7XhUVFTltPXDgQCsqKjIz2jtezJ4925KSkiwhIcF69eplGRkZZnbh7RsKhezxxx+3vn37Wnp6ur311luuH1Os85jxACMAAAAAd/AIFgAAAADXEEAAAAAAuIYAAgAAAMA1BBAAAAAAriGAAAAAAHANAQQAAACAawggAAAAAFxDAAEAAADgGgIIAAAAANcQQAAAAAC4hgACAAAAwDUEEAAAAACuIYAAAAAAcA0BBAAAAIBrCCAAAAAAXEMAAQAAAOAaAggAAAAA1xBAAAAAALiGAAIAAADANQQQAAAAAK4hgAAAAABwDQEEAAAAgGsIIAAAAABcQwABAAAA4BoCCAAAAADXEEAAAAAAuIYAAgAAAMA1BBAAAAAAriGAAAAAAHANAQQAAACAawggAAAAAFxDAAEAAADgGgIIAAAAANcQQAAAAAC4hgACAAAAwDUEEAAAAACuIYAAAAAAcA0BBAAAAIBrCCAAAAAAXEMAAQAAAOAaAggAAAAA1xBAAAAAALiGAAIAAADANQQQAAAAAK4hgAAAAABwzf8DUV+o8WzIrvAAAAAASUVORK5CYII='
p43
tp44
sS'read_count'
p45
I1326098
sS'is_paired'
p46
S'Paired-ended'
p47
sS'read_length'
p48
F51.0
sS'tss_enrich'
p49
(S'/home/users/cteng585/CT_refactor/ataqc/test/test_dump/test_refactor_manual_tss-enrich.png'
p50
S'/home/users/cteng585/CT_refactor/ataqc/test/test_dump/test_refactor_manual_large_tss-enrich.png'
p51
g6
(g10
S'\x8c\xd6\xae7\xf5\x9a0@'
p52
tp53
Rp54
tp55
ssS'raw_bam'
p56
(dp57
S'flagstat'
p58
S'1999792 + 0 in total (QC-passed reads + QC-failed reads)\n0 + 0 secondary\n0 + 0 supplementary\n0 + 0 duplicates\n1893830 + 0 mapped (94.70%:-nan%)\n1999792 + 0 paired in sequencing\n999896 + 0 read1\n999896 + 0 read2\n1878380 + 0 properly paired (93.93%:-nan%)\n1886126 + 0 with itself and mate mapped\n7704 + 0 singletons (0.39%:-nan%)\n4642 + 0 with mate mapped to a different chr\n2798 + 0 with mate mapped to a different chr (mapQ>=5)\n'
p59
sS'read_count'
p60
I1999792
sS'mapped_count'
p61
I1893830
sS'read_length'
p62
F51.0
sS'mapq'
p63
(I1460071
F0.7301114315888853
tp64
sS'is_paired'
p65
S'Paired-ended'
p66
sS'picard_dups'
p67
(F62305.0
F0.085896
tp68
sS'gc'
p69
(S'/home/users/cteng585/CT_refactor/ataqc/test/test_dump/test_refactor_manual_gc.txt'
p70
S'/home/users/cteng585/CT_refactor/ataqc/test/test_dump/test_refactor_manual_gcPlot.pdf'
p71
S'/home/users/cteng585/CT_refactor/ataqc/test/test_dump/test_refactor_manual_gcSummary.txt'
p72
tp73
sS'preseq'
p74
(S'/home/users/cteng585/CT_refactor/ataqc/test/test_dump/test_refactor_manual.preseq.dat'
p75
S'/home/users/cteng585/CT_refactor/ataqc/test/test_dump/test_refactor_manual.preseq.log'
p76
tp77
sS'chrM'
p78
(I493630
F0.26065169524191717
tp79
sS'picard_complexity'
p80
I5734328
sS'chrM_dups'
p81
(I158384
F0.7801245172984475
tp82
sS'encode_complexity'
p83
(dp84
S'PBC2'
p85
F348.111326
sS'PBC1'
p86
F0.997125
sS'NRF'
p87
F0.997122
sssS'peaks'
p88
(lp89
(dp90
S'peak_count'
p91
I150
sS'name'
p92
S'Peaks'
p93
sS'sizes'
p94
(ccollections
OrderedDict
p95
((lp96
(lp97
S'Min size'
p98
ag6
(g10
S'\x00\x00\x00\x00\x00\xc0b@'
p99
tp100
Rp101
aa(lp102
S'25 percentile'
p103
ag6
(g10
S'\x00\x00\x00\x00\x00\xe0x@'
p104
tp105
Rp106
aa(lp107
S'50 percentile (median)'
p108
ag6
(g10
S'\x00\x00\x00\x00\x00\xdc\x81@'
p109
tp110
Rp111
aa(lp112
S'75 percentile'
p113
ag6
(g10
S'\x00\x00\x00\x00\x00\xd0\x89@'
p114
tp115
Rp116
aa(lp117
S'Max size'
p118
ag6
(g10
S'\x00\x00\x00\x00\xb8\xd0\x05A'
p119
tp120
Rp121
aa(lp122
S'Mean'
p123
ag6
(g10
S'O\x1b\xe8\xb4\x01\xa5\xb0@'
p124
tp125
Rp126
aatp127
Rp128
S'iVBORw0KGgoAAAANSUhEUgAAAyAAAAJYCAYAAACadoJwAAAABHNCSVQICAgIfAhkiAAAAAlwSFlzAAAPYQAAD2EBqD+naQAAIABJREFUeJzs3X1cVGX+//H3zKDiDaCoqIiApmRZpmiappmmke6upYaFSuVduuauX7K0/Gbmdmdl69qu4br+zFTC200tS8rcRWozb1NrLZMVMNHUQLC8Czm/P4jzdQQVlWCus6/n4+EDOefMOdecuWHe8/lcMy7LsiwBAAAAQAVwV/YAAAAAAPz3IIAAAAAAqDAEEAAAAAAVhgACAAAAoMIQQAAAAABUGAIIAAAAgApDAAEAAABQYQggAAAAACoMAQQAAABAhSGAAAAAAKgwBBAAAAAAFYYAAgAAAKDCEEAAAAAAVBgCCAAAAIAKQwABAAAAUGEIIAAAAAAqDAEEAAAAQIUhgAAAAACoMAQQAAAAABWGAAIAAACgwhBAAAAAAFQYAggAAACACkMAAQAAAFBhCCAAAAAAKgwBBAAAAECFIYAAAAAAqDAEEAAAAAAVhgACAAAAoMIQQAAAAABUGAIIAAAAgApDAAEAAABQYQggAAAAACoMAQQAAABAhSGAAAAAAKgwBBAAAAAAFYYAAgAAAKDCEEAAAAAAVBgCCAAAAIAKQwABAAAAUGEIIAAAAAAqDAEEAAAAQIUhgAAAAACoMAQQ4Gepqalyu90qLCws933v379fgYGBysjIuOA28fHxGjZs2EX3M3XqVHXt2vWqxnL27Fm53W5t2LBBkvTxxx8rMDBQlmVd1X7P99vf/lYPP/yw/XvTpk01b968cj2GJL344ou66667yn2/5yooKNDgwYNVt25dBQYG6vjx47/o8QDTrF27Vtdee60CAwM1efJkLViwQDfeeKO9vizPb7g8kydPVvfu3St7GMAVIYDAGLfffruqVaumwMBA1a5dW61bty73F7Qul6tc91esSZMmys/PV2RkZJkvc6EX7OU9xi5duig/P79M+x06dKgeeOCBMu03MTFRc+bMudrheSntnDz55JNau3ZtuR7nfMuXL1dqaqqysrKUn5+vgICActv3k08+qdatWysoKEiNGzfWoEGD9O2333pts3PnTnXr1k21atVSWFiYpk6d6rV+yZIluu222xQUFCSPx1MiRL/11lsKCAhQYGCg/a9KlSpq27at13ZTpkxR48aNFRAQoNtvv11ffvml1/qkpCR7rE2aNFFCQoLOnDlT5nGca+vWrapatapuu+22yzpfv4T169erZ8+eqlevntxut/7zn/9U2LHPf0MgPT1dbrdbAQEBCgoKUp06dXTTTTcpISFB+/fv97psWFiYqlevrsDAQAUHB+vmm2/WqlWrvLaxLEtPPfWUQkNDFRAQoB49emj37t0XHdOkSZPUtm1bVatWTT169CjT9Rg7dqweeeQR5efn69lnn9UDDzygXbt2XXD7Jk2aaMGCBWXat4mKb9eaNWsqMDBQ9erVU/fu3fXpp5+W63F+qb9ZwC+NAAJjuFwuTZw4Ufn5+crNzdXEiRM1YsQI+w83fMPZs2fLvZpS2fbu3atmzZqpZs2aV7yPc1+on8vtduvNN9/U999/r927d8vlcuk3v/mNvf6HH37QXXfdpa5duyonJ0dr167V3LlzNXPmTHub4OBgPfLII/rTn/5U6jEGDRqk48ePKz8/X/n5+crJyVG9evW8wuQrr7yi+fPn68MPP9TRo0fVuXNnxcTE6MSJE5KKQtADDzygp59+Wnl5efrXv/6llJQU/eEPfyjzOIqdPn1aQ4cO1e23337J83YxP/3001VdvljNmjX14IMPauHChb/oC7qyjtflcunf//638vLylJubq6SkJB0+fFg33nijdu7c6bXdnDlzlJ+fryNHjig2NlYDBw5UVlaWvc20adOUlJSk9evX68iRI2rfvr1iYmJ06tSpCx6/RYsWev755zV8+PAyjbewsFD79u1TmzZtyrR9ZbrQ47C87kvnW7t2rfLz87V//35dd9116tOnj/2YAv6rWYAhbr/9dmvy5Mley+rVq2f98Y9/tCzLsk6dOmU9+eST1jXXXGMFBwdb3bp1s7Zv325v+89//tPq3LmzVbduXSs4ONjq0aOH9fnnn3utd7vd1tmzZy3LsqxvvvnGuu6666wJEyaUOp4BAwZYkyZN8hpfvXr17N8XL15sXXPNNZZlWVZGRoblcrms9PR0e/3LL79shYeHW3Xq1LFGjBhhDRw40Bo6dKhlWZbVu3dvy+12W9WrV7dq1apl3XDDDZZlWdYzzzxjdenSxZo6darVqFEjq27dutaoUaPsMZfm8OHDVr9+/azatWtb11xzjZWUlGS5XC4rNTXVvt4ul8vex/r166327dtbtWvXturWrWt16dLFOnbsmPXCCy9YVapUsapWrWrVqlXLCggIsPbv329ffvHixVZUVJTl7+9vfffdd9ZDDz1kxcfH2+OIjIy0pkyZYvXo0cOqVauWdeONN1opKSn2+uLrdq5z93GhczJlyhSvyx07dswaOXKkFRYWZtWvX9/q06eP9fXXX5c4TlnP4UMPPWRVrVrV8vPzswICAqw+ffpYlmVZBw4csAYOHGg1aNDAatiwoXXfffdZ2dnZXpcbOHCg9dvf/tYeR1l8/vnnltvtto4dO2ZZlmXNnz/fatCggdf4Zs6caTVv3rzEZc+/D19IcnKyVbNmTSs3N9de1rRpU+vPf/6z/XtBQYEVEhJiLVq0yLIsy3r77bet4OBgr/089thjpV6vS41j/PjxVkJCgvXMM89YXbt2vehYz+VyuawZM2ZYnTt3tmrVqmUtWbLEsizLWrNmjdWxY0erTp06VlRUlPXaa6/Zlyl+7P3tb3+zrr/+eisoKMjq2bOn12Px3G3dbnep6843f/58KywszJo5c6YVFhZm1atXzxo2bJj1ww8/2NsU3+fvuusuKzAw0HrppZdK7KegoMDr8bh3717L7XZbmZmZXtsVFhZat956q3XHHXfYy8LCwqw333zT/v3YsWOWy+WyVq1aZS9r0qSJlZiYaP9+5swZq27dutbixYsveR2feuopq3v37hfdZvfu3VatWrXsx2ZAQIC1ceNGa+7cuVZkZKS93ZAhQ+zntzvvvNPrsdymTZtS971u3TrL5XJZK1assFq0aGEFBQVZMTEx1qFDh+xtXnvtNatVq1ZWYGCgFRoaaj344IPW999/73UdunXrZk2aNMkKDQ21brrpJvvcTZ061brzzjutwMBA69VXX7Usy7JWrVplRUdHW0FBQVbLli2tGTNm2PsaN26c13PakCFDrCpVqlj5+fmWZVnWxx9/bAUEBFgFBQUlblfLKnpsu1wua+fOnZZlWda3335r3X///VZoaKjVsGFDa/DgwdbRo0cv67qde/usXr3aatCggfX3v//9grfXc889ZzVp0sQKDg62Hn74YWvAgAHWyJEjLcuyrBUrVtjP7QEBAVatWrUsl8tlJSUlXXB/wJWiAgIjnT17VgsXLlRubq46dOggSRo1apS2bNmitLQ0HTlyRAMHDlRMTIzy8/MlSVWrVtWrr76q7777TllZWWrRooXuvvtuFRQUlNj/P//5T3Xt2lUTJkzQSy+9VOoYevXqpQ8++ECSdOLECW3ZskWBgYHaunWrJGndunWKiYmxtz/3ndW33npL06ZN09KlS3XkyBF16NBBb7/9tr3+vffeU3h4uGbNmqXjx497tTJ89tlnCggIUFZWlj799FMtW7ZMCxcuvOC5Gjx4sE6dOqWMjAxt2bJFycnJJd7lPff3+Ph4jR07Vrm5uTp06JCmT5+uqlWr6sknn9TgwYN133332e+mh4WF2ZdbunSpNm7cqPz8fNWrV6/UsSQmJur5559XXl6e/ud//kd9+/ZVZmZmqeM434XOicvl8rrckCFDlJ6erm3btikrK0tRUVHq2bOn17uOmzZtKvM5fOONNzRp0iR16tRJ+fn5WrNmjQoLC/WrX/1KVapU0d69e/X111/Lsiz17dvXq/qzcuVKdezYUQcPHtSKFSsueN3OlZKSooiICAUFBUmSduzYobZt28rt/r+n65tvvln/+c9/9MMPP5Rpn+dLTEzU/fffr9q1a0uS8vPzlZGRoZtvvtnexuPxqE2bNtq+fbskKSYmRi1atNBbb72lwsJCpaen65133tGAAQMu69gbNmzQmjVr9MILL1zR2OfMmaN58+bp+PHjuvvuu/WPf/xDgwcP1rRp05STk6O3335b06dPV3Jystfl5s6dqw8//FCHDh1SZGSkfvOb31z1fK9Dhw5px44d+uabb7Rz507t2rVLCQkJJcY7depU5eXl6fe///0VH8vlcmnQoEHasGFDqc9Zp0+f1qxZs+R2u3XttddKknJycvTtt9963a5VqlTRTTfdZN+uV6tly5Y6duyYLMtSSkqK8vPz1bFjR3vMpUlJSVFoaKj++te/6vjx45ccy+rVq+3Hc15enp566il7XWhoqFavXq28vDx9+umn+ve//13iNvjXv/6lgIAAZWRkaOPGjfbyOXPm2M9HY8aM0caNGxUbG6unnnpKOTk5WrhwoV566SW9/vrrkoqe8z/66CP78uvWrVOzZs20fv16+/fu3bvL4/GUuA7Hjx9XYmKigoOD1bx5c506dUrdu3dX06ZNlZ6err1798qyLMXHx1/WdSs2ffp0jR07Vu+//7769etX6jbz5s3Ta6+9ppUrV+rIkSNq166dVq9eba/v37+/V6X08ccfV9OmTXXHHXdc8LYBrhQBBEZ55ZVXFBwcrEaNGum1117T/PnzdeuttyonJ0cLFizQrFmz1KhRI7ndbo0ZM0ZBQUF69913JUmdOnXSLbfcIo/Ho5o1a+rFF19UVlaWvv76a69j/O1vf9P999+vJUuW6KGHHrrgWO68805t375dOTk5+sc//qGbb75Zffv2VUpKiiTpww8/1J133mlvf+4L0/nz52vYsGHq2LGjPB6PRo4cqdatW5c4hlVKK1N4eLgSEhLk5+enFi1a6I477tCmTZtKHWN2drbWrVun6dOnKygoSLVr19aLL7540RapatWqKT09XdnZ2fLz81PHjh1VvXr1C24vFb3QeOmll1SnTh1VqVLF68XyuR588EHdcsstcrvdGjZsmNq0aaNFixZddN/nu9jYDx48qDVr1mjmzJmqX7++/P399corr+jkyZP2/UCSPX+hLOewNJs2bdKuXbv0+uuvq1atWgoMDFRiYqK2bdumzZs329u1b99eDz74oDwej/z9/S+533Xr1unZZ5/VX//6V3tZfn6+HRSK1alTx153ub744gulpaVpzJgxXseQVOpxitdVr15dw4cP19ixY+Xv76+oqCh16tRJQ4cOLfOxf/zxRw0fPlxz584t0/kozaOPPmq/wK5WrZr+9Kc/acyYMXY71/XXX69Ro0aVmCv09NNPKzQ0VP7+/poxY4b27NlTLv34M2fOlL+/vxo1aqQ//OEPWrBggdd9dNiwYfabJFd6nYuFh4fr7NmzOnbsmL1szJgxCg4OVo0aNTRt2jQtWrTIPj/Fc7sudruWp4s9Nq90++LnluLHWVxcnNdjdcCAAWrWrJmkovMzYcIE+42hYqGhoXriiSdUpUoVr9tgxIgRat++vaSi22bu3Lm655571K9fP7ndbrVv317jx4/X7NmzJRXNQ8zJydGuXbu0Y8cOBQQEaOTIkfZz/gcffOD1nC9Jv/71r1W3bl21bNlSmZmZWrt2rapXr67Vq1frzJkzeuGFF+Tv76+aNWvqhRde0Nq1a3X48OEyX7czZ85oxIgRSk5O1saNG0vM6zrXwoULNXLkSEVHR8vtduvhhx9Wq1atSt129uzZev311/XBBx+oQYMGF9wncKUIIDDK448/rpycHB0+fFibN2/WkCFDJBX16EtSx44dFRwcrODgYNWpU0fZ2dn2hN6dO3eqb9++CgsLU+3atdWsWTO5XC77yV4q+oP4hz/8QQMGDLjk5NimTZuqWbNm+uCDD+w/PL169dLatWu1Z88eZWdnX3AC57fffqumTZuW2F9ZhIaGev1es2bNC34q07fffiuXy+U1+f1Sx1m9erXS09PVrl07RUVF6ZlnninTO8VlmWB//jZNmzYtMbH2ahRf3+I/2pLk5+eniIgIr774yzmHpdm/f7+Cg4MVGBhoLyu+z517nLLeppL07rvvKjY2VklJSerVq5e9PDAw0OsFpyTl5uba6y7X66+/rptvvlnR0dFex5BU6nGK17355puaMGGC3nnnHZ05c0bZ2dk6evSoBg0aVOZjjx8/Xr/61a906623Xva4i51/H/rmm280c+ZMr8f9Sy+9pO++++6Cl6tVq5bq1atX5vtenz597En8v/rVr+zlderUUa1atezfmzZtqp9++snr2JfzwROXkpmZKY/HY1fHpKJqVvFzYpcuXbzeoS/+dLuL3a4mOPcF8PmP1WXLlqlz584KCQlR7dq1NXToUK/ndOnCt8H5y/fv369rrrnGa1nz5s3tx3TNmjXVqVOnEs/5xZWfTZs2lQgga9as0ffff68DBw7o/ffftwPP3r17deDAAft+GxwcrDZt2qh69er28cpy3b7++mstXLhQTz31lBo1anTR83jgwAFFRERc8tysWLFCTz75pN5///0S5wMoLwQQOELDhg3lcrm0c+dO5eTkKCcnR7m5ufrhhx80YcIESdLAgQPVvHlz/fvf/9axY8e0b98+WZbl9S6cy+VSWlqaPvzwwzK1S/Ts2VMffPCBPvzwQ8XExOj222/X9u3btXz5cnXo0MHr05LObUcICwsr8ZG85/9+oSrC5ShukTp33/v27bvoZVq1aqWkpCQdPHhQy5cv1+zZs/XGG29cckxlGW9p17l4jAEBAfrxxx+91mdnZ1/WMZo0aSKp6JOEip09e1ZZWVkl/vBejSZNmig3N1d5eXn2suL73LnHKettmJSUpPj4eC1btkx9+/b1WlfcBnVuCNy0aZOaNWvm9eK3LH744QclJSXpkUce8VoeGBioyMhIr+rN2bNntX37djuobN26VbfffrsdHho0aKCHH37Yq4XjUlJSUrRgwQLVr19f9evX18svv6yNGzcqJCSkzJ88df45bdiwoZ544gmvx31eXp7XZG3J+773ww8/6OjRo14thBfz3nvv2a0pa9assZfn5uZ6vRjet2+fqlSp4vWCuTwex8WSk5PVrVs3ValSxV5W/PxVt25dzZ8/X0uXLtX7778vqSgUh4WFed2uP/30k93WV5nK47xkZWUpLi5O48eP14EDB3Ts2DH7uaosxzp/eZMmTbyeO6SioBAeHm7/3rNnT6WkpOiDDz5QTEyMWrdurZMnT2r27NkKCwtTixYtvC5/oSpPw4YNdc0119j32+L77o8//qj27duX+brdeOONWrVqlYYPH66lS5eWfqJ+1rhxY6+WV0klfv/nP/+p4cOHa8WKFZV+H4GzEUDgCOHh4brnnnv0yCOP2O8eHT9+XGvXrrXfjczLy1NgYKACAgKUk5OjRx99tNQe5cjISH388cf6+OOPFR8fX2q/dbE777xTb7/9tr7//nu1bdtWNWrUUIcOHfTKK6+UeCfs3D9EDz74oObNm6fPPvtMZ8+e1dy5c7Vjxw6v7Rs2bFiiPexyhYaG6o477tCECRN07Ngx5ebm6n//938v2Jv9008/af78+Tp69KikolDg5+dnv+Bp2LCh0tPTr7h3fsGCBfZ1nj9/vj7//HMNHjxYUlG70q5du/TJJ5+osLBQy5YtK/EJZ5c6Jw0bNlSfPn00fvx4HT58WCdPntSECRNUrVo19enT54rGXJoOHTrohhtu0NixY3X8+HHl5eXpkUceUXR0tP0OZ1n95S9/0e9+9zu9++676tmzZ4n1/fv3l8fj0ZQpU3Tq1Cnt2rVLr776qsaOHWtvU1hYqNOnT+v06dOSpFOnTun06dMlXvwsWLBAVatW1X333VfiOGPGjNH06dP15Zdf6uTJk3rqqadUrVo13XPPPZKkrl27Ki0tzW5bOnLkiObOnet1fS81js8++0xffPGFduzYoR07dmj06NGKjo7Wjh07rrhSMG7cOP35z3/W+vXrdfbsWZ09e1Zffvml0tLSvLZ77rnndODAAZ04cULjx49XixYt1LlzZ0lFj83Tp0/r1KlT9v9Pnz5dpvv5+PHjdeLECWVnZ+uZZ57RAw88cNWfpHXu7WZZlr744gvFx8friy++0PTp0y94uZCQEP3+97/XhAkT7H2MGTNGL7/8snbv3q0TJ05o0qRJqlmzpu6+++4L7qegoECnTp1SQUGBfZte6NOjrlR5PL8dP35clmWpXr16qlKlivbs2aNp06Zd8f6GDx+uVatWadWqVSosLNTWrVs1Y8YMjRo1yt7mzjvvVFpamjZt2mRXuHv16qUXX3zRq3J5Kffee69OnDihqVOn2iH2u+++07Jlyy77ut1111169913NXbsWK/2zfPFx8dr7ty52rZtm/1354svvrDX79ixQ/3799ecOXPK/PHLwJUigMAYl/qj/tZbb6ldu3bq1auXgoKCdN1112nu3Ln2H+I33nhDS5cuVUBAgDp37uzVSnG+kJAQbdiwQd9++63uueeeC35kZY8ePXTixAmvPzzFE9/PDyDnjn/w4MGaMGGCYmNjVb9+fW3atEn9+/f32v7pp5/WqlWrVKdOnav6eMtFixapatWqioyMVPv27XX//fdfdPvly5frhhtuUEBAgLp37+713R/FXyxYr149BQcHl/i+iotxuVwaPXq0Jk2apNq1a+vVV1/VypUr7Tal2267TZMmTVL//v3t83/vvfd67aMs52ThwoWKjIxUdHS0wsPDtXv3bq1bt+6qPkL3fG63W++++65Onz6t5s2b69prr1VhYaFWrVp12S8+f//73+vHH39U79697YAcGBioTz75RFJRu1BKSopSU1NVt25dxcTEaOTIkRo3bpzXda5evbp69+5tX6ZGjRolXoTPnj1bQ4cOVbVq1UqM47HHHtNDDz2knj17qn79+vr000+1du1a1ahRQ5IUGxurKVOmaNiwYfb38Pj7+3vN4bnUOEJCQhQaGmr/CwwMVNWqVe15W5dS2rm9++67tXDhQj399NMKCQlRgwYNNHLkSH3//fde2w0fPly9evVSo0aNtHfvXr3zzjv2MTds2KDq1avr+uuvl8vl0g033KAaNWpccn5So0aNdOONNyoqKkqtW7dWq1atNGPGjIuOd9++fQoICNBnn312we1cLpdatWqloKAgBQcHKy4uTnXr1tXOnTt10003XXT/xe+Yv/nmm5KkiRMnasiQIerRo4dCQkK0detWpaSk2HMhShvP0KFDVaNGDb388stKS0tT9erVvaptCxYsUHBwcIkxX45nnnlGy5cvV506dewQW9p+L6ZVq1Z67rnndP/99ysoKEgjRowo8/cUlTbeTp06acmSJZo6daqCg4M1aNAgPfbYY14Vw3bt2ikgIEBt27a1n1OKn/PP/dCRCx2jWGBgoD799FOlp6erVatWql27trp27Wo/7i/3unXu3Fn/+Mc/9Nxzz+n555+XVBS6z61iDB06VGPHjtXdd9+tkJAQbdmyRX369LHvC8uXL1d+fr5GjBjh9VxUHIqA8uSyLnfWGAAAhsjMzFSzZs30zTffeM0NulpvvvmmJk+e7DXnBzDNjTfeqIceekjjx4+v7KHgvwwVEACAo/E+G1BkyZIlOn36tE6ePKlXXnlFe/fuLVFpBioCAaSMxo0bp6ZNm8rtdpeY3ChJ69evl5+fn1577TV72cmTJzVo0CC1aNFCLVu2LPP3AADAf5v9+/fbLR/n/+vSpctV7fuX/HZzwCSzZ89Ww4YN1bBhQy1btkzvvvtuuX5AB1BWtGCV0ccff6xmzZqpS5cuWrlypdd3NuTn56tXr15q2LCh7rjjDvvTk5599lnt27dP8+bNU0ZGhjp27KivvvrK/gx/AAAA4L8NFZAy6tKli0JDQ0st5Y8dO1aTJ08uMXluyZIlGj16tKSiT1bq3r2717ddAwAAAP9tCCBXacWKFfJ4PPr1r39dYt353z1w/pehAQAAAP9t/Cp7ACb77rvv9Nxzzyk1NbVc9nf06FGlpKQoMjJS1atXL5d9AgAAoPycPHlSGRkZiomJUb169Sp7OEYigFyFrVu36tChQ2rTpo0sy9LRo0f1zjvv6MiRI3r22WcVHh6uzMxM+1txi++sF5KSkqIhQ4ZU1PABAABwhRYtWmR/mS4uDwHkKvTp00cHDx60fx86dKjatm1rT0KPjY3V7Nmz1aFDB+3bt0+pqalKTEy84P6Kvwl40aJFuu66637RsZskISHB68u9wDkpDeekJM6JN85HSZyTkjgnJXFOvO3evVtDhgyxX7fh8hFAymj06NFas2aNvvvuO8XExCggIEB79uzx2ub8j3p8/PHHNWzYMDVv3lx+fn6aNWvWRb/ltbjt6rrrrlN0dHT5XwlDBQUFcT7OwzkpiXNSEufEG+ejJM5JSZyTkjgnpaNd/soRQMpo9uzZl9xm3rx5Xr/XqFFDixcv/qWGBAAAABiHT8ECAAAAUGEIIAAAAAAqDAEEPi8uLq6yh+BzOCclcU5K4px443yUxDkpiXNSEucE5c1llfbV3qgU27ZtU7t27bR161YmewEAAPggXq9dPSogAAAAACoMAQQAAABAhSGAAAAAAKgwBBAAAAAAFYYAAgAAAKDCEEAAAAAAVBgCCAAAAIAKQwABAAAAUGEIID7q2DHp0Uel3bsreyQAAABA+SGA+KgTJ6QZM6R9+yp7JAAAAED5IYD4KI+n6GdBQeWOAwAAAChPBBAf5edX9PPs2codBwAAAFCeCCA+igoIAAAAnIgA4qOKAwgVEAAAADgJAcRH0YIFAAAAJyKA+ChasAAAAOBEBBAfRQUEAAAATkQA8VHun28ZKiAAAABwEgKID/N4qIAAAADAWQggPszPjwACAAAAZyGA+DCPhxbEdUwmAAAgAElEQVQsAAAAOAsBxIdRAQEAAIDTEEB8GBUQAAAAOA0BxIcxCR0AAABOQwDxYbRgAQAAwGkIID6MFiwAAAA4DQHEh1EBAQAAgNMQQHwYFRAAAAA4DQHEhzEJHQAAAE5DAPFhtGABAADAaQggPowWLAAAADgNAcSHUQEBAACA0xBAfBgVEAAAADgNAcSHMQkdAAAATkMA8WG0YAEAAMBpCCA+jBYsAAAAOA0BxIdRAQEAAIDTEEB8GBUQAAAAOA0BxIcxCR0AAABOQwDxYbRgAQAAwGkIID6MFiwAAAA4DQHEh1EBAQAAgNMQQHwYFRAAAAA4DQHEhzEJHQAAAE5DAPFhtGABAADAaQggPowWLAAAADgNAcSHUQEBAACA0xBAfBgVEAAAADgNAcSHMQkdAAAATkMA8WG0YAEAAMBpCCA+jBYsAAAAOA0BxIdRAQEAAIDTEEB8GBUQAAAAOA0BxIcxCR0AAABOQwDxYbRgAQAAwGkIID6MFiwAAAA4DQGkjMaNG6emTZvK7XZr586d9vJhw4bp2muvVdu2bdW1a1dt2bLFXnfy5EkNGjRILVq0UMuWLbVixYrLOiYVEAAAADgNAaSMYmNj9cknnygyMtJref/+/bV7925t375dTzzxhGJjY+1106dPl7+/v7755hutXbtWY8aMUW5ubpmPSQUEAAAATkMAKaMuXbooNDRUlmV5Lf/1r38tt7voNN5yyy3Kzs5WYWGhJGnJkiUaPXq0JCkyMlLdu3fX22+/XeZjMgkdAAAATkMAKUd/+tOf1KdPHzuQZGVlKSIiwl4fERGhrKysMu/Pz48KCAAAAJzFr7IH4BSLFi3S8uXLtWHDhnLbJxUQAAAAOA0BpBwsWbJEzz77rNavX6/69evbyyMiIpSZmakGDRpIkjIyMhQTE3PJ/SUkJCgoKEgZGdKZM1LfvlJcXJzi4uJ+qasAAACA8yQnJys5OdlrWV5eXiWNxjkIIFdp6dKlmjx5sj766CM1btzYa929996r2bNnq0OHDtq3b59SU1OVmJh4yX3OmDFD0dHRmjNHGjVKWr36lxo9AAAALqS0N4C3bdumdu3aVdKInIE5IGU0evRoNWnSRAcOHFBMTIyioqIkSUOGDNHp06d19913q23btoqOjrY/6erxxx/XiRMn1Lx5c/Xu3VuzZs1ScHBwmY/p8RT9/HlOOwAAAGA8KiBlNHv27FKXnzlz5oKXqVGjhhYvXnzFx/T7+dYpKJCqVr3i3QAAAAA+gwqIDyuugDARHQAAAE5BAPFhxRUQAggAAACcggDiw4orIHwXCAAAAJyCAOLDaMECAACA0xBAfNi5k9ABAAAAJyCA+DAqIAAAAHAaAogPYxI6AAAAnIYA4sOYhA4AAACnIYD4MFqwAAAA4DQEEB/GJHQAAAA4DQHEh1EBAQAAgNMQQHwYk9ABAADgNAQQH8YkdAAAADgNAcSH0YIFAAAApyGA+DAmoQMAAMBpCCA+jAoIAAAAnIYA4sOYhA4AAACnIYD4MCahAwAAwGkIID6MCggAAACchgDiw6iAAAAAwGkIID6MSegAAABwGgKID6MFCwAAAE5DAPFhtGABAADAaQggPowKCAAAAJyGAOLDqIAAAADAaQggPoxJ6AAAAHAaAogPowULAAAATkMA8WHun28dWrAAAADgFAQQH+ZyFbVhUQEBAACAUxBAfJzHQwUEAAAAzkEA8XFUQAAAAOAkBBAf5+dHAAEAAIBzEEB8HC1YAAAAcBICiI+jAgIAAAAnIYD4OCogAAAAcBICiI9jEjoAAACchADi42jBAgAAgJMQQHwcLVgAAABwEgKIj6MCAgAAACchgPg4KiAAAABwEgKIj2MSOgAAAJyEAOLjaMECAACAkxBAfBwtWAAAAHASAoiPowICAAAAJyGA+DgqIAAAAHASAoiPYxI6AAAAnIQA4uNowQIAAICTEEB8HC1YAAAAcBICiI+jAgIAAAAnIYD4OCogAAAAcBICiI9jEjoAAACchADi42jBAgAAgJMQQHwcLVgAAABwEgKIj6MCAgAAACchgPg4KiAAAABwEgKIj2MSOgAAAJyEAOLjaMECAACAkxBAfBwtWAAAAHASAoiPowICAAAAJyGAlNG4cePUtGlTud1u7dy5015+5MgR9e7dW1FRUWrdurXS0tLsdSdPntSgQYPUokULtWzZUitWrLjs41IBAQAAgJMQQMooNjZWn3zyiSIjI72WP/HEE+rUqZP27NmjefPmadCgQTr7c8li+vTp8vf31zfffKO1a9dqzJgxys3NvazjMgkdAAAATkIAKaMuXbooNDRUlmV5LV+6dKlGjx4tSWrfvr0aN26s1NRUSdKSJUvsdZGRkerevbvefvvtyzouLVgAAABwEgLIVcjJyVFBQYFCQkLsZREREcrKypIkZWVlKSIiotR1ZUULFgAAAJyEAOLjqIAAAADASfwqewAmCw4Olp+fnw4fPmxXQTIyMhQeHi6pqOKRmZmpBg0a2OtiYmIuud+EhAQFBQVJkr76Sjp0SEpOjlNcXNwvdE0AAABwvuTkZCUnJ3sty8vLq6TROAcB5CrFxsYqMTFRU6ZM0ebNm5Wdna1u3bpJku69917Nnj1bHTp00L59+5SamqrExMRL7nPGjBmKjo6WJE2dKv31rxLZAwAAoGLFxZV8A3jbtm1q165dJY3IGWjBKqPRo0erSZMmOnDggGJiYhQVFSVJmjZtmv71r38pKipKw4YNU1JSkjwejyTp8ccf14kTJ9S8eXP17t1bs2bNUnBw8GUdlxYsAAAAOAkVkDKaPXt2qctDQkKUkpJS6roaNWpo8eLFV3VcJqEDAADASaiA+DgqIAAAAHASAoiPowICAAAAJyGA+Di+CR0AAABOQgDxcbRgAQAAwEkIID6OFiwAAAA4CQHEx/n5SZYlFRZW9kgAAACAq0cA8XE/f6UIbVgAAABwBAKIjyOAAAAAwEkIID7O7+eviiSAAAAAwAkIID6uuALCRHQAAAA4AQHEx1EBAQAAgJMQQHwcFRAAAAA4CQHExzEJHQAAAE5CAPFxtGABAADASQggPo4WLAAAADgJAcTHUQEBAACAkxBAfBwVEAAAADgJAcTHMQkdAAAATkIA8XG0YAEAAMBJCCA+jhYsAAAAOAkBxMdRAQEAAICTEEB8HBUQAAAAOAkBxMcxCR0AAABOQgDxcbRgAQAAwEkIID6OFiwAAAA4CQHEx1EBAQAAgJMQQHwcFRAAAAA4CQHExzEJHQAAAE5CAPFxxS1YVEAAAADgBAQQH0cFBAAAAE5CAPFxTEIHAACAkxBAfByT0AEAAOAkBBAfRwsWAAAAnIQA4uOYhA4AAAAnIYD4OCogAAAAcBICiI9zuSS3mwACAAAAZyCAGMDjoQULAAAAzkAAMYDHQwUEAAAAzkAAMYCfHxUQAAAAOAMBxABUQAAAAOAUBBAD+PkRQAAAAOAMBBADMAkdAAAATkEAMQAtWAAAAHAKAogBmIQOAAAApyCAGIAKCAAAAJyCAGIAJqEDAADAKQggBmASOgAAAJyCAGIAKiAAAABwCgKIAaiAAAAAwCkIIAZgEjoAAACcggBiAFqwAAAA4BQEEAPQggUAAACnIIAYgAoIAAAAnIIAYgAqIAAAAHAKAogBmIQOAAAApyCAGIAWLAAAADgFAcQAtGABAADAKQggBqACAgAAAKcggBiACggAAACcggBiACahAwAAwCkIIOXkvffeU7t27dS2bVu1bt1aCxYskCQdOXJEvXv3VlRUlFq3bq20tLTL3jctWAAAAHAKv8oegFPEx8drw4YNatWqlTIzM9WyZUsNGDBAEydOVKdOnfT+++9ry5Yt6tevnzIyMuTxeMq8b1qwAAAA4BQEkHLidruVm5srScrLy1O9evVUtWpVLVu2TOnp6ZKk9u3bq3HjxkpNTVWPHj3KvG8qIAAAAHAKAkg5Wbx4sfr166eaNWvq2LFj+vvf/67jx4+roKBAISEh9nYRERHKysq6rH1TAQEAAIBTMAekHJw9e1bPPfecVq5cqYyMDK1bt05DhgxRQUGBLMu66v0zCR0AAABOQQWkHHz++ec6ePCgbr31VklFrVZhYWHauXOnqlSposOHD9tVkIyMDIWHh190fwkJCQoKCrJ/37lTcrniJMX9YtcBAAAA3pKTk5WcnOy1LC8vr5JG4xwEkHLQpEkTHTx4UF999ZVatmypvXv36j//+Y9atmyp2NhYJSYmasqUKdq8ebOys7PVrVu3i+5vxowZio6Otn8fO1a6gg/PAgAAwFWIi4tTXJz3G8Dbtm1Tu3btKmlEzkAAKQchISGaM2eOBg4cKI/Ho8LCQs2aNUthYWGaNm2a4uPjFRUVpWrVqikpKemyPgFLYhI6AAAAnIMAUk7uu+8+3XfffSWWh4SEKCUl5ar2zSR0AAAAOAWT0A3AJHQAAAA4BQHEALRgAQAAwCkIIAagBQsAAABOQQAxABUQAAAAOAUBxABUQAAAAOAUBBADMAkdAAAATkEAMQAtWAAAAHAKAogBaMECAACAUxBADEAFBAAAAE5BADEAFRAAAAA4BQHEAExCBwAAgFMQQAzg5ycVFkqWVdkjAQAAAK4OAcQAHk/RT6ogAAAAMB0BxAB+fkU/CSAAAAAwHQHEAMUVECaiAwAAwHQEEAPQggUAAACnIIAYgBYsAAAAOAUBxAC0YAEAAMApCCAGoAICAAAApyCAGIAKCAAAAJyCAGIAJqEDAADAKQggBqAFCwAAAE5BADEALVgAAABwCgKIAaiAAAAAwCkIIAagAgIAAACnIIAYgEnoAAAAcAoCiAFowQIAAIBTEEAMQAsWAAAAnIIAYgAqIAAAAHAKAogBqIAAAADAKQggBmASOgAAAJyCAGIAWrAAAADgFAQQA9CCBQAAAKcggBiACggAAACcggBiACogAAAAcAoCiAGYhA4AAACnIIAYgBYsAAAAOAUBxAC0YAEAAMApCCAGoAICAAAApyCAGIAKCAAAAJyCAGIAJqEDAADAKQggBnC7JZeLAAIAAADzEUAM4fHQggUAAADzEUAM4edHBQQAAADmI4AYggoIAAAAnIAAYgiPhwoIAAAAzEcAMQQtWAAAAHACAoghaMECAACAExBADEEFBAAAAE5AADEEFRAAAAA4AQHEEExCBwAAgBMQQAxBCxYAAACcgABiCFqwAAAA4AQEEENQAQEAAIATEEAMQQUEAAAATkAAMQST0AEAAOAEBBBD0IIFAAAAJyCAGIIWLAAAADgBAcQQVEAAAADgBASQcnLmzBn97ne/U1RUlG666SY98MADkqQjR46od+/eioqKUuvWrZWWlnZF+6cCAgAAACfwq+wBOMXEiRPldru1Z88eSdLhw4clSU888YQ6deqk999/X1u2bFG/fv2UkZEhj8dzWftnEjoAAACcgABSDk6cOKF58+bpwIED9rKQkBBJ0tKlS5Weni5Jat++vRo3bqzU1FT16NHjso5BCxYAAACcgBascpCenq7g4GA9//zzuvnmm9WtWzetX79eOTk5KigosMOIJEVERCgrK+uyj0ELFgAAAJyAAFIOCgoKlJmZqRtuuEGbN2/WzJkzdf/996ugoECWZZXLMaiAAAAAwAlowSoH4eHh8ng8GjRokCSpTZs2ioyM1K5du1SlShUdPnzYroJkZGQoPDz8ovtLSEhQUFCQ17KDB+PUoEHcL3MFAAAAUEJycrKSk5O9luXl5VXSaJyDAFIO6tatqzvuuENr165V7969tW/fPmVkZOj6669XbGysEhMTNWXKFG3evFnZ2dnq1q3bRfc3Y8YMRUdHey0bMED68cdf8loAAADgXHFxcYqL834DeNu2bWrXrl0ljcgZCCDlJDExUcOHD9fEiRPl8Xg0Z84cNWrUSNOmTVN8fLyioqJUrVo1JSUlXfYnYElFLVjMAQEAAIDpCCDlpGnTplq/fn2J5SEhIUpJSbnq/fMxvAAAAHACJqEbgknoAAAAcAICiCH4GF4AAAA4AQHEELRgAQAAwAkIIIZgEjoAAACcgABiCCogAAAAcAICiCGYhA4AAAAnIIAYgknoAAAAcAICiCGogAAAAMAJCCCGoAICAAAAJyCAGIJJ6AAAAHACAoghaMECAACAExBADEELFgAAAJyAAGIIKiAAAABwAgKIIaiAAAAAwAkIIIZgEjoAAACcgABiCFqwAAAA4AQEEEPQggUAAAAnIIAYggoIAAAAnIAAYojiOSCWVdkjAQAAAK4cAcQQHk/Rz8LCyh0HAAAAcDUIIIbw8yv6SRsWAAAATEYAMURxBYSJ6AAAADAZAcQQVEAAAADgBAQQQ1ABAQAAgBMQQAxRHECogAAAAMBkBBBD0IIFAAAAJyCAGIIWLAAAADgBAcQQVEAAAADgBAQQQ1ABAQAAgBMQQAzBJHQAAAA4AQHEELRgAQAAwAkIIIagBQsAAABOQAAxBBUQAAAAOAEBxBBUQAAAAOAEBBBDMAkdAAAATkAAMQQtWAAAAHACAoghaMECAACAExBADEEFBAAAAE5AADEEFRAAAAA4AQHEEExCBwAAgBMQQAxBCxYAAACcgABiCFqwAAAA4AQEEENQAQEAAIATEEAMQQUEAAAATkAAMQST0AEAAOAEBBBD0IIFAAAAJyCAGIIWLAAAADgBAcQQVEAAAADgBAQQQ7h/vqWogAAAAMBkBBCDeDxUQAAAAGA2AohB/PwIIAAAADAbAcQgHg8tWAAAADAbAcQgVEAAAABgOgKIQaiAAAAAwHQEEIMwCR0AAACmI4AYhBYsAAAAmI4AYhBasAAAAGA6AohBqIAAAADAdAQQg1ABAQAAgOkIIAZhEjoAAABMRwApZ2+88YbcbrdWr14tSTpy5Ih69+6tqKgotW7dWmlpaVe8b1qwAAAAYDoCSDnKzMzU3Llz1alTJ3vZE088oU6dOmnPnj2aN2+eBg0apLNXmCJowQIAAIDpCCDlxLIsjRgxQn/5y19UtWpVe/nSpUs1evRoSVL79u3VuHFjpaamXtExqIAAAADAdASQcvLHP/5RXbt2Vdu2be1lOTk5KigoUEhIiL0sIiJCWVlZV3QMKiAAAAAwnV9lD8AJvvzyS61YseKq5neUBZPQAQAAYDoCSDlIS0tTZmamWrRoIcuydOjQIT388MN65pln5Ofnp8OHD9tVkIyMDIWHh190fwkJCQoKCvJaFhcXJz+/OAIIAABABUlOTlZycrLXsry8vEoajXO4LMuyKnsQTtO9e3c9+uij+s1vfqNhw4YpIiJCU6ZM0ebNm9W/f39lZGTI4/GUuNy2bdvUrl07bd26VdHR0SXW33abFBEhLVxYEdcCAAAA57vU6zVcGhWQX4DL5VJxrps2bZri4+MVFRWlatWqKSkpqdTwURZMQgcAAIDpCCC/gPXr19v/DwkJUUpKSrnsl0noAAAAMB2fgmUQJqEDAADAdAQQg9CCBQAAANMRQAxCCxYAAABMRwAxCBUQAAAAmI4AYhAqIAAAADAdAcQgTEIHAACA6QggBqEFCwAAAKYjgBiEFiwAAACYjgBiECogAAAAMB0BxCBUQAAAAGA6AohBmIQOAAAA0xFADEILFgAAAExHADEILVgAAAAwHQHEIFRAAAAAYDoCiEGogAAAAMB0BBCDMAkdAAAApiOAGIQWLAAAAJiOAGIQWrAAAABgOgKIQaiAAAAAwHQEEINQAQEAAIDpCCAGYRI6AAAATEcAMQgtWAAAADAdAcQgtGABAADAdAQQg1ABAQAAgOkIIAahAgIAAADTEUAM4vEU/SwsrNxxAAAAAFeKAGIQP7+in7RhAQAAwFQEEIMUV0BowwIAAICpCCAGoQICAAAA0xFADEIFBAAAAKYjgBikOIBQAQEAAICpCCAGoQULAAAApiOAGIQWLAAAAJiOAGIQKiAAAAAwHQHEIFRAAAAAYDoCiEGogAAAAMB0BBCDUAEBAACA6QggBuFjeAEAAGA6AohBaMECAACA6QggBqEFCwAAAKYjgBiECggAAABMRwAxCBUQAAAAmI4AYhAmoQMAAMB0BBCD0IIFAAAA0xFADEILFgAAAExHADEIFRAAAACYjgBiECogAAAAMB0BxCBMQgcAAIDpCCAGoQULAAAApiOAGIQWLAAAAJiOAGIQKiAAAAAwHQHEIFRAAAAAYDoCiEGYhA4AAADTEUAMQgsWAAAATEcAMYj751uLFiwAAACYigBiEJerqA2LCggAAABMRQAxjMdDBQQAAADmIoAYhgoIAAAATEYAMYyfHwEEAAAA5iKAlIPTp0+rX79+atmypdq2bauYmBilp6dLko4cOaLevXsrKipKrVu3Vlpa2lUdixYsAAAAmIwAUk5GjRqlr776Stu3b1ffvn01YsQISdLEiRPVqVMn7dmzR/PmzdOgQYN09ipKGFRAAAAAYDICSDmoVq2a7rrrLvv3W265RZmZmZKkZcuWafTo0ZKk9u3bq3HjxkpNTb3iY1EBAQAAgMkIIL+AmTNn6p577lFOTo4KCgoUEhJir4uIiFBWVtYV75tJ6AAAADCZX2UPwGleeOEFpaena86cOTpx4kS5758WLAAAAJiMAFKOpk+frpUrV+qjjz6Sv7+//P395efnp8OHD9tVkIyMDIWHh190PwkJCQoKCvJaFhcXp7i4OFqwAAAAKkhycrKSk5O9luXl5VXSaJyDAFJO/vjHP2rx4sX66KOPFBAQYC+PjY1VYmKipkyZos2bNys7O1vdunW76L5mzJih6OjoUtdRAQEAAKgYxW8An2vbtm1q165dJY3IGQgg5eDAgQN67LHHdM0116h79+6yLEv+/v769NNPNW3aNMXHxysqKkrVqlVTUlKSPB7PFR+LCggAAABMRgApB40bN1ZhYWGp60JCQpSSklJux2ISOgAAAEzGp2AZhhYsAAAAmIwAYhhasAAAAGAyAohhqIAAAADAZAQQw1ABAQAAgMkIIIZhEjoAAABMRgAxDC1YAAAAMBkBxDC0YAEAAMBkBBDDUAEBAACAyQgghqECAgAAAJMRQAzDJHQAAACYjABiGFqwAAAAYDICiGFowQIAAIDJCCCGoQICAAAAkxFADEMFBAAAACYjgBiGSegAAAAwGQHEMLRgAQAAwGQEEMPQggUAAACTEUAMQwUEAAAAJiOAGIYKCAAAAExGADEMk9ABAABgMgKIYWjBAgAAgMkIIIahBQsAAAAmI4AYhgoIAAAATEYAMQwVEAAAAJiMAGIYJqEDAADAZAQQw9CCBQAAAJMRQAxDCxYAAABMRgAxDBUQAAAAmIwAYhgqIAAAADAZAcQwTEIHAACAyQgghqEFCwAAACYjgBiGFiwAAACYjABiGD8/ybKkwsLKHgkAAABw+QgghvF4in7ShgUAAAATEUAMQwABAACAyQgghvHzK/pJAAEAAICJCCCGKa6AMBEdAAAAJiKAGIYKCAAAAExGADEMFRAAAACYjABiGCahAwAAwGQEEMPQggUAAACTEUAMQwsWAAAATEYAMQwVEAAAAJiMAGIYKiAAAAAwGQHEMExCBwAAgMkIIIahBQsAAAAmI4AYhhYsAAAAmIwAYhgqIAAAADAZAcQwVEAAAABgMgKIYZiEDgAAAJMRQAxDCxYAAABMRgAxDC1YAAAAMBkBxDBUQAAAAGAyAohhqIAAAADAZAQQw5g0Cf3UKalTJ+nppyt7JAAAAPAVfpU9AFwek1qwXnlF+uwzaeNGqW5dady4yh4RAAAAKhsBxDCmtGBlZEgvvCA9/rhkWVJCgtSwoXTffZU9MgAAAFQmAohhTKmAJCQUVT0mT5Zq1JAOHpQeeECqX1/q0aOyRwcAAIDKQgAxjAkVkLVrpZUrpcWLpVq1ipb9v/8nHT4s3XOPtGGD1KZN5Y4RAAAAlYNJ6Ibx9Unop09Lv/tdUZVj4MD/W161qrR8udSihdS7d1GLVlklJyeX+zhNxzkpiXNSEufEG+ejJM5JSZyTkjgnKG8EkAqwd+9e3Xrrrbr22mvVsWNH7d69+4r3dbEWrB9/lDIzL+9ffv4VD6VUr75aFC7+/GfJ5fJeFxAgvfdeUUvWXXdJR4+WbZ/JyckqLJTOnLm8sRw+XPp13r+/aF5KWRUU+F7FqTL/GOTklH5es7IqNxjzB7Ikzom3c8+HLz6uKwP3kZI4JyX9N56TL7+s7BE4GwGkAowaNUqjR4/W119/rQkTJujBBx+84n2V1oJ1+rQ0/f+3d/dBVZV5HMC/oLg2m1qYqAmXi3IBl5d4V2BRKZPtRSbXmdzRLLFRpsxqd2abdtJdU7IcrYVKt20z33BHDEdTs3SNIsZZE3DxLSsFBSoDhMkhRV0u3/3jrMdIIlE5Fz3fzwx/cJ5z7nnOl/tyfjznOXcJMGQI4HR27mfwYOD5543i5WpVVwPZ2cbdrn71q/bXGTgQ2L7dOImNiQHWrAFaWzt+3JMngfh4oG9f4E9/Ak6d6nj9qipgyhRjX+0ds8MBJCcD//53x4/jdgP/+Afg7w8EBABvvdV9R56sUFcHPP444OfXfq6BgcaldR984NFuinTI7Qbeftt4H/D3B958U4WIiFx05Ajw298CERHGnTyla6gA6WL19fUoKyvDlClTAAATJ05ETU0NKisrr+jxvLwAb2/jQ5QE1q8Hhg8Hnn3WOOnesQP4178u/2fWLONuVS6X8aF8NSfYv/89cMstwF/+0vF6wcHGrXkTE42J6YmJQFHRpet9/jmQkWEUCr16GZd25eYafV22DPjvf9uuf+qUUaCEhgKFhcDSpe0f8/r1xneUJCcbl4m196fYvt04mZ45E7jrLiAtDZgxwyiaduy48oyuR83NwEsvGX+3f/7TeL60l+u77wK+vsYldunpwIEDnu65SFv19UBsLPDoo8Do0cDddwNZWcZr/f33OzcyKmf8NjQAAAz5SURBVCI3loaGi/9ALS0F8vKAhARP9+oGRulSZWVlDAsLa7MsMTGRH330UbvrAmBZWVmHj+njQ06fTiYlkQB5//3kZ59deR+PHSN/9zvjsaKiyB07Ov8Y27cb269d27ntPvmETEgwts3IID//nKyrIx9/nOzRg3Q6ybi48WxtNdavqSGnTSO9vMiwMHLzZvL8eXLpUvK228ibbiL//Geyqanj/brd5MqV5JAhRp5/+APZ2Eju30+OG2f0JzWV3LPn4jaffkr++tdG229+Qx440LljvZbGjx/f5ftwu8m8PNLhIHv2JJ98kjx5suNtWlvJjRtJl4v09iYffZT85psu7ypJazK53igTw8GD5D33kMB4JieTu3dfbCspIUeNMl7Xd99Nlpd7rp+eoOfIpZTJpW7kTM6eJZcsIW+5hezTh1y4kDxzpuNtLvd8TX6a7oLVjTQ3NwPAz84R8fY2RitCQoC//c0YQWhuBvbuvfJ9//GPxryMv/4VGDcOiIw0RjMu1+HDxn8WQ0M7149f/tIYzdixw5g3Eh5ujHb06AE88YTxvSHPPnsK//nPxQedPdv4z2VOjjFC0qcP0NQEjB9/8RKhL7/8+X1HRgL5+cDatUYf/v534MwZ41K2xYuNUQ8vr4vH07Onsc+PPjJGYqKijOx79br8471WDh06hVGjruIPfhlOnACOHjVyyMkxLrG6MN+jIw6H8Z+jggLj8pa1a41L6H48J+hasyKT640yMeaO7dkD3H47MHz4Kbz66t42r2tvb+CVV4xR2NxcYzQkMRH4xS8822+r6DlyKWVyqRs5k6NHgdpa47KrrCxjJP/npupeOE+7cN4mnedFatC5K9XX18PlcqGxsRHe3sYVb4MHD8auXbswdOjQNuuuXbsWDz30kCe6KSIiIiKdkJeXZ15iL52jEZAuNmDAAMTGxmLNmjV45JFHUFBQgICAgEuKDwBIT09HXl4enE4nbrrpJg/0VkREREQ60tzcjOPHjyM9Pd3TXbluaQTEAl9++SWmTZuGhoYG9OvXDytWrEB4eLinuyUiIiIiYjkVICIiIiIiYhndhldERERERCyjAkRERERERCyjAqSbOHr0KFJSUhAaGooRI0b87K14rxfnzp3DhAkTEBYWhpiYGKSnp6OiogKAcYewe+65ByEhIYiKikJxcbG5XXNzMyZPngyXy4WwsDBs2LDBbCOJ2bNnIzg4GCEhIVi6dGmbfWZnZyM4OBgulwtz5syx5kCv0IoVK+Dt7Y3NmzcDsHcm58+fx+zZsxESEoI77rgDDz/8MAD7ZrJt2zbExcUhJiYGUVFRWL16NQB75fHUU08hKCgI3t7e2L9/v7ncExksX74cISEhcLlcyMrKgvtqvrX1KvxUJtOnT0doaChiYmKQmpqK0tJSs82umVxQWFiInj174tVXXzWX2TmTefPmITQ0FFFRUbjrrrvM5XbNpKSkBElJSYiNjUV4eDgWL15stt3omXiUB757RNpx5513cvXq1STJgoICJiQkeLhH18bZs2f5/vvvm7+//vrrHDNmDEkyMzOTzz//PEmypKSE/v7+bGlpIUnOnz+fmZmZJMljx47Rz8+PjY2NJMlVq1Zx7NixJMnGxkYGBgbys/9/E2NRUREjIiLY3NzMc+fOMT4+ntu2bbPmYDvp+PHjTE5OZnJyMt99912S5PTp022bydNPP80nn3zS/L22tpakfTPx9fXlwYMHSRrPld69e/P777+31eumuLiYX3/9NYOCgrhv3z5zudXPicrKSt5+++2sq6sjSWZkZHDZsmUWJHCpn8pky5YtdLvdJMmtW7fS6XSabXbNhCRPnTrFxMREZmRkMDc311xu10xycnI4ceJE8/Vy4X2WtG8m0dHR3Lp1K0nj2Pz8/Hj48GGSN34mnqQCpBuoq6tjv379zA8Pkhw0aBArKio82KuuUVpayqCgIJLkzTff3ObNb8SIEfzwww9JkuHh4fz000/NtgcffJDLly8nSd53333Mz88325555hnOnTuXJDlr1iwuWrTIbFu2bBmnTp3adQd0hVpbWzl27Fju3buXY8aMMQsQu2Zy+vRp9u3bl03tfIW9XTO57bbbWFxcTJLct28f/f39ef78eVvm4XQ625wwWJ3B4sWL+dhjj5lt27ZtY2pq6rU8xE77cSY/dPLkSfbq1cv8TLFzJlOnTuWWLVs4bdq0NgWIXTPx9/fnkSNH2l3XrpnExsZyzZo1JMnq6moGBASY7y92ycQTdAlWN1BTU4PBgwebX1QIAA6HA9XV1R7sVdfIzc3FAw88gMbGRrS0tMDPz89sCwwMNI+5uroagYGBZpvT6bzqtu7klVdeQWpqKmJiYsxlds6koqICvr6+eOGFF5CQkIDRo0ejsLDQ1pmsW7cOEyZMgNPpxKhRo7Bq1So0NTXZNo8LPPGcuJ7yAYCcnBzce++95meKXTPZsGEDevTogfvvv/+SNjtm0tTUhNraWmzatAkjR45EUlIS1q9fb7bbMRMAePvttzFnzhwEBgYiLCwMCxcuNN9f7JqJFfRFhGKZhQsXoqKiAm+++SbOnDnj6e54zKFDh7Bhw4Y2163bXUtLC6qqqhAREYEXX3wR5eXlGDduHA4ePAja8E7hbrcb2dnZ2LRpE1JSUlBaWoqMjAyUl5fbMg+5fHl5eSgoKMAnn3zi6a54VG1tLbKzs1FUVOTprnQbLS0taGlpwblz57B7925UVVUhOTkZw4cPR2RkpKe75zEvvfQSFi1ahEmTJuHYsWMYPXo04uPjERYW5umu3dA0AtINBAQE4MSJE2htbTWXVVdXw+FweLBX19aSJUuwadMmfPDBB+jduzd8fX3Rs2dP1NXVmescP37cPObAwEBUVVW12+ZwOK6orbsoLi5GVVUVXC4XgoKCsHv3bsycORPr16+3bSYOhwM9evTA5MmTAQDR0dFwOp04cOAAfHx8bJdJeXk5Tpw4gZSUFABAfHw8/P39sX//flvm8UOeeO+4XvLJz8/HggULsHPnTgwYMMBcbsdMysrK8O233yI6OhpBQUEoKCjA/PnzMXfuXABdc9zdPZNbb70Vffr0wZQpUwAYz4uUlBSUlJSYv9stk4aGBmzcuBGTJk0CAAQFBWHkyJHYtWsXAHtmYhlPXwMmhrS0NK5cuZIk+c4779wwk9BJ8uWXX2ZcXBy/++67NsszMzM5b948kuSePXvaTCSdN2+eOfGrsrKSAwcOZENDA0ly5cqVHDt2LN1uNxsaGhgYGGhO1v34448ZERHBM2fO8OzZs4yPj+d7771n1aFekTFjxnDz5s0k7Z1Jenp6m0l6AwYM4DfffGPLTGpra9m3b19zIuSRI0fYv39/1tTU2DKPH1+zbXUGlZWVHDJkCGtra9na2sqMjAwuXbrUsuNvz48zyc/Pp8vlYnV19SXr2jWTH/rxHBC7ZpKVlWVOeL5wbCUlJSTtmYnb7Wb//v1ZWFhIkqyvr6fD4TDnfdglE09QAdJNfPHFF0xKSmJISAgTEhLMJ/H17quvvqKXlxeDg4MZExPD6Ohojhw5kqRxkjVu3Di6XC5GRESwqKjI3O706dOcNGkShw0bxtDQUBYUFJhtbrebTzzxBIcOHcrg4GC+9tprbfa5YMECDh06lMOGDeNzzz1nzYFehbS0NHMSup0zqaysZFpaGiMjIxkdHc2NGzeStG8m69atM7OIioriunXrSNorj6ysLPr7+9PHx4eDBg2iy+Ui6ZkM3nrrLQ4bNozBwcGcMWOGWfBY7acy8fHxocPhMN9nY2JizLv12DWTH8rMzGxTgNg1k4aGBmZkZDAiIoKRkZF84403zG3smsnOnTsZFxfH6OhohoeHMycnx9zmRs/Ek7xIXVAsIiIiIiLW0BwQERERERGxjAoQERERERGxjAoQERERERGxjAoQERERERGxjAoQERERERGxjAoQERERERGxjAoQERERERGxjAoQERERERGxjAoQERERERGxjAoQERERERGxjAoQERERERGxjAoQERERERGxjAoQERERERGxjAoQERERERGxjAoQERERERGxjAoQERERERGxjAoQERERERGxjAoQERERERGxjAoQERERERGxjAoQERERERGxjAoQERERERGxjAoQERERERGxjAoQERERERGxjAoQERERERGxjAoQERERERGxjAoQERERERGxjAoQERERERGxjAoQERERERGxjAoQERERERGxjAoQERERERGxjAoQERERERGxjAoQERERERGxjAoQERERERGxjAoQERERERGxjAoQERERERGxjAoQERERERGxjAoQERERERGxjAoQERERERGxjAoQERERERGxjAoQERERERGxjAoQERERERGxjAoQERERERGxjAoQERERERGxjAoQERERERGxjAoQERERERGxzP8AtpG11iRVY5IAAAAASUVORK5CYII='
p129
tp130
sa(dp131
g91
I274720
sg92
S'Naive Overlap'
p132
sg94
(g95
((lp133
(lp134
g98
ag6
(g10
S'\x00\x00\x00\x00\x00\xc0b@'
p135
tp136
Rp137
aa(lp138
g103
ag6
(g10
S'\x00\x00\x00\x00\x00\xc0b@'
p139
tp140
Rp141
aa(lp142
g108
ag6
(g10
S'\x00\x00\x00\x00\x00\xa0j@'
p143
tp144
Rp145
aa(lp146
g113
ag6
(g10
S'\x00\x00\x00\x00\x00\x10\x80@'
p147
tp148
Rp149
aa(lp150
g118
ag6
(g10
S'\x00\x00\x00\x80\xb5\xddGA'
p151
tp152
Rp153
aa(lp154
g123
ag6
(g10
S'\xcc\x15\xbd\xa3\x05}\xbb@'
p155
tp156
Rp157
aatp158
Rp159
S'iVBORw0KGgoAAAANSUhEUgAAAyAAAAJYCAYAAACadoJwAAAABHNCSVQICAgIfAhkiAAAAAlwSFlzAAAPYQAAD2EBqD+naQAAIABJREFUeJzs3Wl4FFXi/v27mwABkpAEAsiSBEgiDMtoQFGGXSACCqjskBEC/gICKoLgILIoLiPgyGiUQTZFZZeMiCyCgoLKEjZREAhLBCRoyMIOSc7zIk/qT4eEBIWmp/x+rssLu09V9enTVZW665yqchhjjAAAAADADZy3ugIAAAAA/jwIIAAAAADchgACAAAAwG0IIAAAAADchgACAAAAwG0IIAAAAADchgACAAAAwG0IIAAAAADchgACAAAAwG0IIAAAAADchgACAAAAwG0IIAAAAADchgACAAAAwG0IIAAAAADchgACAAAAwG0IIAAAAADchgACAAAAwG0IIAAAAADchgACAAAAwG0IIAAAAADchgACAAAAwG0IIAAAAADchgACAAAAwG0IIAAAAADchgACAAAAwG0IIAAAAADchgACAAAAwG0IIAAAAADchgACAAAAwG0IIAAAAADchgACAAAAwG0IIAAAAADchgACAAAAwG0IIAAAAADchgACAAAAwG0IIAAAAADchgACAAAAwG0IIAAAAADchgACAAAAwG0IIAAAAADchgACAAAAwG0IIAAAAADc5n8qgKxfv15Op1PZ2dk3fNk///yz/Pz8dPjw4QKniY6OVkxMzDWXM2HCBDVt2vQP1SUrK0tOp1NfffWVJGnDhg3y8/OTMeYPLTevQYMG6f/+7/+s19WrV9esWbNu6GdI0iuvvKL777//hi/3SpmZmerdu7fKlSsnPz8/nT59+qZ+Xq6b1WbwXHm3G9xYefd/fwZpaWlq3769AgICFBwcfEvqkJiYKKfTqaSkpFvy+XYUFRWlV1999VZX46Zx1zrz/vvvKyQkRH5+fpoxY4YmTpyoDh06WOVNmzbVCy+8cFPr8GdTlOPdP+qGBpAWLVqoZMmS8vPzk7+/v+rXr3/DD84cDscNXV6uatWqKSMjQ6GhoUWep6CDzxtdxyZNmigjI6NIy+3Xr5/+/ve/F2m577zzjqZPn/5Hq+civzb5xz/+oZUrV97Qz8lr8eLFWr9+vZKSkpSRkSFfX9+b+nlFZYzRyy+/rFq1aqls2bIqX768GjVqpEWLFlnThIaGqlSpUvLz81NgYKAaNmyopUuXuiwn77ZVr169q367d999V7Vr11ZAQIDKlSunZs2aad26dVfVafLkybr99tvl4+OjqlWratKkSVbZv/71LzVs2FD+/v6qVKmSOnbsqB9//NEqP3v2rFq1aqVKlSqpbNmyCgkJ0fDhw3Xx4kWXz4iLi1P16tXl4+Ojhg0b6uuvv3Yp//bbb9WsWTMFBATotttu04gRI5SVlZVvGw4bNkxOp7PI+5Ljx4+rc+fOCg0NLfJ8t3q7mTBhgry8vOTn5yc/Pz9Vr15dI0eOVGZmZr7lvr6+8vPz0xNPPCFJ2r9/v7p3765q1aqpbNmyqlWrliZPnuzyGSkpKYqNjVVwcLD8/Px02223qU2bNvrhhx8kSUeOHJHT6bSWnfs5gYGBN/S7egqn06kvvvjiuue7cnvNbavPPvvsD9Vl2rRpOnnypH799ddbGgDy/o354osvFBkZqdKlSyssLEzvvvvuNef//PPPdd9996lcuXJFPjDt06ePSpQo4dKezz///HXV4+LFixo0aJDKly+vsmXLqnPnzjp+/LhVPnPmTFWvXt1lno8++ki+vr6aOXNmoXX8vVatWqVnn332pi3fE9ysY7Jcly9f1qBBg/Tmm28qIyNDAwYM0JgxY7R8+fJ8p/8znMDIDX6520vFihX14IMPas+ePbe6atflhgYQh8OhUaNGKSMjQ6mpqRo1apQGDBhg6xXhf1FWVtYN70251Q4cOKAaNWqoTJkyv3sZly5duoE1yvHaa69pzpw5WrJkidLT03X06FFNnjxZAQEB1jQOh0Nvv/22MjIy9Ntvv6lXr17q3r27Dh486DJN7raVlpamsWPHatCgQS4H9m3bttXXX3+t1NRU/fbbbxo6dKg6dOiglJQUa5qhQ4dq/vz5Wrx4sc6cOaMff/xR7du3t8ovXryoqVOnKjk5WUeOHNHtt9+u1q1bWwGjZMmSevPNN3X06FGlp6dry5YtSkhI0JgxY6xlLFq0SGPGjNHcuXOVlpammJgYtW/fXseOHZOU09t4//33q0+fPkpJSdE333yjFStWaNSoUVe137p16/Tll1+qcuXKRW5zp9OpqKgozZs3T9WqVSvyfIW52dtN48aNlZGRoYyMDC1dulRz5szRyy+/nG/56dOnlZGRoX//+9+SpNTUVDVr1kybNm1Senq65s+frzfeeMMql3IO9JKTk7VlyxZlZGRoz549GjRokLy8vKxpHA6Hdu3a5fI5p06dumnf+X/Rldtr7u9w5Tb0eyQmJuovf/mLy29xqx08eFAPPPCABg0apIyMDM2YMUMjRozQp59+WuA8Pj4+6tevn957770iH5g6HA716dPHpT1ffPFFq/zQoUOF1uOJJ57Q5s2btWvXLh09elRlypRRp06drvqcXC+99JIGDx6s+Ph49e/fv6hNgivcjL+X+Tl27JguXLigO+64o0jT38pjm4LaJPdE0o3kcDj0448/KiMjQz/99JO8vLyuWuc9nrmBWrRoYZ5//nmX98qXL29ef/11Y4wxFy5cMP/4xz9MzZo1TWBgoGnevLnZvn27Ne26detM48aNTbly5UxgYKBp1aqV2bFjh0u50+k0WVlZxhhj9u/fb2rXrm1GjhyZb30eeeQRM3r0aJf6lS9f3no9f/58U7NmTWOMMYcPHzYOh8MkJiZa5a+99poJDg42AQEBZsCAAaZbt26mX79+xhhj2rVrZ5xOpylVqpTx8fExdevWNcYYM378eNOkSRMzYcIEc9ttt5ly5cqZ2NhYq875OXnypHnooYeMv7+/qVmzpvnwww+Nw+Ew69evt763w+GwlvHFF1+Yhg0bGn9/f1OuXDnTpEkTk5aWZl5++WVTvHhxU6JECePj42N8fX3Nzz//bM0/f/58ExERYby9vU1ycrLp27eviY6OtuoRGhpqxo0bZ1q1amV8fHxMvXr1zKpVq6zy3O92pSuXUVCbjBs3zmW+tLQ089hjj5mqVauaoKAg0759e/PTTz9d9TlFbcO+ffuaEiVKGC8vL+Pr62vat29vjDHm2LFjplu3bqZixYqmUqVKpnv37ub48eMu83Xr1s0MGjTIqkd+3nzzTVOzZk3j5+dnKlWqZK0DuW32wgsvmPbt2xtfX18TFhZmli5dapU/+OCD5sknn8x3uVcuY+bMmdbrM2fOGIfDYZYsWWK9V9C2NWXKlHyXmZmZaRYvXmycTqdJSEgwxhizb98+43Q6zQ8//HDN+lwpLS3NOBwOl+3wSr/88otp2bKlefDBB633WrZsaZ5++mmX6e68804zceJEY4wx77zzjqlVq5ZL+YwZM4yvr6+5dOmS9V5GRoYJDw83CQkJV7VRURVlvhux3YwfP95ERUUZHx8fExERYb744guzbt06U79+fePn52fatGljkpOTC6zD+PHjTdOmTV3e69Kli+nYsWOB5YV56qmnTOfOna3Xvr6+LutmXocPHzZOp9NlH1iYomyre/bsMe3atTPly5c31apVM7GxsSY9Pd0qL2z/N2fOHFO1atV8PzdXixYtzJAhQ8zDDz9sfH19TXh4uHn//fcLrHedOnWM0+k0pUuXdtln9O3b1/To0cMMGTLElCtXzlSqVOmq7e5618Xc+k+dOtVUrVrVlC9f3sTExJizZ88aY4xp1aqVKV68uClevLjx9fU1gwYNync5TZo0MU888YTp3Lmz8fX1NREREebDDz80xhiTlZVlKleubObPn+8yzz//+U/ToEEDY4wxO3fuNK1atTJBQUHG39/f3HPPPVYbG2PMgQMHjNPpNEeOHDHGGPP888+bu+++22V5Q4cONffff3+h3znvsq6lT58+LvvUvAqrx7lz54y3t7dZsWKFVZ6cnGy8vLzMd999Z4zJ2b9Ur17dZGZmmv79+5vg4GCze/fua9ZrzJgxpkWLFmbcuHGmUqVKply5cmbQoEEmOzvbmqZ///4mJCTE+Pj4mJo1a5oXXnjBZRm524YxxnTr1s3Exsa6lG/atMmULFnSpKSkGGOM+eGHH0yHDh1MhQoVTNWqVc2QIUPM+fPnr1nPXBs2bDBNmjQxAQEBpkaNGua5554zly9fNsYYM3LkSBMVFeUy/bFjx4yXl5f5/vvvjTHGHD161PTo0cNUrlzZVKpUyfTu3dv89ttvLt/lySefNN26dTP+/v5m6NCh5sCBA8bhcFi/c1HWMYfDYWbMmGFq1aplypYta9q0aWMOHTqU73dauXKlKVOmjHE6naZMmTLG19fX/PLLL9Zvk18733777S7bdu4+NK8ZM2aY0NBQ8/bbb5uQkBDj7+9vunfvbs6cOWNN89xzz5nw8HDj6+trgoODzZNPPmkuXLhglffp08f07NnTxMbGmqCgINOxY0eTmZlpHA6HmTp1qrn33nuNj4+P9bd8xowZpk6dOqZs2bKmfv365oMPPrCW1alTJzN27FiX71SxYkXr9QcffGBuv/12qx3zbl/x8fHG6XSajIwMY0z+69K5c+eu67tduV3+5z//MVWqVDEbNmzItz0vXbpknnzySVOxYkVTsWJFM2bMGHPPPfeYl156yRhjzOuvv279ffX19c35XW9WsMnKytLcuXOVmpqqu+++W5IUGxurrVu36uuvv9avv/6qbt26KSoqShkZGZKkEiVKaMqUKUpOTlZSUpLCw8PVqVOnfNPjunXr1LRpU40cOVL//Oc/861DmzZttHr1aknSuXPntHXrVvn5+SkhIUGStGbNGkVFRVnTX3mG5KOPPtKrr76qhQsX6tdff9Xdd9/tMizms88+U3BwsOLi4nT69Gl9//33VtmmTZvk6+urpKQkffvtt1q0aJHmzp1bYFv17t1bFy5c0OHDh7V161bNmzfvqrNHV76Ojo7WkCFDlJqaqhMnTmjy5MkqUaKE/vGPf6h3797q3r27dSapatWq1nwLFy7Ud999p4yMDJUvXz7furzzzjt66aWXlJ6erqeeekodO3bUkSNH8q1HXgW1icPhcJmvT58+SkxM1LZt25SUlKSIiAi1bt1a586ds6bZvHlzkdtw9uzZGj16tO69915lZGRo+fLlys7OVocOHVS8eHEdOHBAP/30k4wx6tixo8sZkvj4eDVq1Ei//PKLlixZctWyDxw4oFGjRmnZsmVKT09XYmLiVeMiZ86cqZdfflkZGRl6/PHH9eijj+rMmTOScoZOvffee5o4caLWr19f6LUpFy9e1FtvvSWHw6FatWrlO01WVpY++ugjnTp1SrVr13Yp2717twICAuTt7a1u3bqpa9euioyMlJQzjMHX11fLli1TSEiIqlSpoi5durj8vnmtWrVKPj4+ioiIcHm/T58+8vHxUeXKlbVr1y6X3osdO3ZY23yuu+66S9u3b5eU/xmqrKwsnT17Vvv27bPeGzZsmLp3727V/2a5EdvNnDlzNHnyZGVkZOjBBx9U79699eabb+rLL7/U8ePHdfbsWY0bN67Iddq6davWrVunRo0a/a7vlJWVpS+//NKl7Vq2bKlnn31W77zzjhISEm7YWblrbatnzpxR69atVbduXR09elRbtmzR3r179eijj1rzX+/+r6D3Zs2apf79+ystLU1Tp07VgAED9O233+Zb5927d8sYo08//dTaZ+SKj49Xs2bN9Ouvv2rp0qV69dVXtX79epf5R48erfLly6t+/fqaNGlSoW154sQJ7dy5U/v379euXbv0/fffa9iwYZKktWvXqnfv3urRo4cyMjL09ttvF7icmTNnKjY2VmlpaZoyZYr69eunLVu2yOl0qm/fvlcNJ5o5c6Yee+wxq72ee+45HT16VMnJyWrbtq06deqk1NTUfD+rsO34RoqPj1dQUJAiIiI0ePBgl17bwurx448/6tKlS7rrrrus8goVKig4ONilrufPn1eHDh20fft2bdq0SXXq1Cm0Xt98843KlSuno0ePauPGjZo3b54++ugjq/zee+9VQkKCTp8+rblz5+pf//qXZs+ene+yBgwYoAULFujChQvWezNmzFDnzp0VGBiokydPqlmzZmrXrp2OHz+uHTt2aM+ePRo+fHih9Txy5Ijatm2rnj176uTJk1q1apU+/vhjjR492vrstWvX6ujRo9Y8s2fPVoMGDVS3bl1duHBBLVu2VPXq1ZWYmKgDBw7IGKPo6GiXz5k1a5YGDBig1NRUvfbaa5Jct8OirmOzZs3Sl19+qV9++UVVq1a96u9yrqioKO3cuVOStGfPHmVkZKhSpUpXfe6VfvjhBxljtHLlSmVkZOi///1vge127NgxHTp0SPv27dOePXu0ZcsWvfHGG1Z5rVq1tG7dOmVkZGjFihX65JNPXHqlJWnJkiVq2rSpTpw4oQULFljvT58+Xe+9955Onz6tDh06aMGCBRo+fLjefvttpaamavLkyYqNjdWKFSskuR6vnj59Wjt27FCpUqWs75/3ePVKv/32m2bPnq3bb79dvr6+Ba5LI0aMuK7vJknZ2dkaNmyYpk6dqo0bN+pvf/tbvnV48cUXtWLFCm3cuFE///yzJGnbtm1W+bBhw6y/rxkZGerevfuN7wHx9vY2AQEBJigoyDRs2NDMnTvXGGNMSkqKcTgcZt++fS7zhIeHW2dx8jp16pRxOBzWmYrcHpBp06aZihUruiTr/Bw8eNAUK1bMpKSkmE8//dS0bNnSPPXUU1YiCwkJMfHx8caYq3tA2rRpY0aMGOGyvAYNGlx19jvvmbDx48dbvSq5unbtah5//PF863js2DHjcDhczkp///33V/WAXNnzU6NGDfP888+bY8eOXbW8vGdnr5x///7915w2NDTUPPPMMy7TNGrUyDpznd9Z2PyWkV+b5M53/Phx43A4rLMuxhhz+fJlU758ebNgwQJr+utpw/zq9u2335pixYq5nGlNSUkxTqfTbNq0yap748aNC1ymMcYcOnTIlC5d2ixcuNA6s3Cl0NBQq32MMebs2bPG4XCYzZs3W+/Nnz/fdOrUyVSoUMF4eXmZ1q1bmx9//NFlGWXKlDEBAQHG6XQaHx8flzMjxuRsW6VKlTIBAQHGy8vLFC9e3EyaNKnAep89e9bMmjXLTJs2zXpv4sSJxuFwmC5dupi0tDSTkZFh+vTpY+rVq+dyVi/Xzp07TWBgoJk1a1aBn7Nr1y4zevRoc/jwYeu9YsWKmZUrV7pMN2rUKNOmTRtjjDGJiYmmdOnSJi4uzly6dMn89NNP5i9/+YtxOp3mm2++McYYs3z5clOvXj3rDN7N7AEx5o9vN7n7FGNy2u3K9cwYY6ZMmWIiIyML/Pzx48cbLy8vExAQYAIDA02tWrXMmDFjTGZm5lXlAQEBxt/f3wQEBJg5c+bku7z+/fubOnXquJzNO3funJk8ebJp3ry58fHxMT4+PiYmJsakpaUZY/7fPrBs2bLW5wQEBJi2bdtes97X2lY/+ugjU6FCBZceke3btxuHw2GSk5OLtP+bM2eOqVat2lWfe+X23qJFC9OlSxeXabp3724GDBhQYN0dDodZu3aty3t9+/Y19913n8t7d911l3nttdes11999ZU5c+aMycrKMhs3bjShoaHm2WefLfBz5syZY7y8vMzp06et91asWGFKlixpbXf5rX95NWnSxPTo0cPlvUceecQMHDjQGJOzXXl5eVnb4rp160yZMmXy3W8ZY0x2drbx8fGxttW8Z1WbN29uxowZ4zLPsmXLTKlSpa5Zz/yWdS0JCQnm5MmTxpicUQ2tWrVy6d0qrB5ffvmlcTqd1raSq0GDBuaf//ynMSbnzHOpUqWMt7e3efXVVwutkzE5PSC5Z5xzPfTQQ+aJJ54ocJ7Bgwe7/EZXnpnPzs42oaGh5r333jPG5Oyj/fz8zJo1a4wxOSMumjVr5rK8devWmdKlSxda1xdffPGqXqJFixYZPz8/63WzZs2suhhjTM2aNc2MGTOMMcYsWLDAhISEuMyfuz/I7blt0qSJ+fvf/+4yTWG/c37rmMPhcBlZkZ6ebpxOp9VblVd+nzFmzBjTsmVL6/WV7ZzbA1HY8eGMGTNMmTJlXPZNw4YNK7DHxBhjJk2aZO655x7rdZ8+fa76zXI/f/bs2S7v33fffVeN1hk8eLA1emDfvn3Gy8vLpKWlmfj4eNOmTRszZMgQax2uUqWK+fTTT602yd1XBwYGmmrVqplHHnnEOr7+PetSft/tkUceMR06dDBt27YtcD+SKzQ01FqfctuhfPnyLn8bc40aNSqnp6rAaPg7PfPMMzp16pROnjypLVu2qE+fPpJyziRLUqNGjRQYGKjAwEAFBATo+PHjVirftWuXOnbsqKpVq8rf3181atSQw+HQyZMnreUbY/TCCy/okUceUbNmza5Zl+rVq6tGjRpavXq1Vq9erbZt26pNmzZauXKl9u3bp+PHj6tVq1b5znv06NGrLlrL+7ogecerlylTpsAz30ePHpXD4XC5+L2wz/nkk0+UmJioBg0aKCIiQuPHjy/SncGKcoF93mmqV69updkbIff71qhRw3rPy8tLISEhLhcsXk8b5ufnn39WYGCg/Pz8rPdy17krP6ewtg4NDdX8+fM1a9YsBQcHq1GjRpo/f77LNLfddpv1/6VLl5Ykl7p2795d8fHxSk5O1vfff6/s7Gw98MADLst48803derUKf36669q0aKF1qxZc1VdRowYoVOnTiktLU19+/bV6tWrC/zdS5curX79+unf//63dXbXz89PDodDL730ksqWLStfX19NmjRJu3fvdul5kHLOardu3VoTJ05Uv379CmyfevXq6Y477tAjjzxivefn56e0tDSX6VJTU63fokaNGvr000/10Ucf6bbbblOXLl2ss7Tly5dXWlqaBg0apNmzZ3vEmPiibDe5Z+UkWdch5X2vsPX33nvv1alTp5SSkqI9e/boxRdfVLFixa4qP3XqlFJTU3Xq1CmXngQp52xV7lnxL7/80uWaqFKlSmn48OHWWa9ly5ZpzZo11pl4Kees4vbt263POXXqlFatWnXNel9rWz169KhCQkLkdP6/PzVhYWGSpKSkpN+1/ytIfvvr37PvKmzf07RpU5UpU0ZOp1ONGzfWhAkTrtnDLUkBAQHy8fFxqdvly5eVnJx8XXW71nesUaOGmjVrZt10YebMmerSpYt1Q44jR46oR48eCgkJkb+/vwIDA3X+/HmXv69XKmw7vlEiIyMVFBQkSdYF5hs3brTuSFlYPXL/LayulSpV0rJlyzRx4sQi90Zea10wxujFF19U3bp1rWOaWbNmFdieDodDMTExVi/VvHnzVK5cOd13332Scm4k8d1331nLCgwMtMb0//rrr9es588//6yaNWu6vBcWFqYzZ85Y7TJgwACrd2bt2rU6efKkevToISnn+OzYsWMun33HHXeoVKlS1/X3sijrWN7tPffmKzfyOKOoKlSo4LJvyrutv/POO4qMjFS5cuUUEBCgcePGXfX7FtQmef9uFPQb5bZveHi4qlWrps8///yq49Uff/xRv/32m1q2bGnN63A49P333yslJUVJSUlavHixwsPDJRVtXSrKd9u4caM+//xzvfTSS4Xe2OfYsWMud/ArVqyYy0iCXG+88YY++OADrV692n234a1UqZJ1geOVf0TPnDmjkSNHSpK6deumsLAw/fjjj0pLS9OhQ4dkjHHpmnM4HPr666/1+eefW3eAuZbWrVtr9erV+vzzzxUVFaUWLVpo+/btWrx4se6++26XRr2yS69q1apX3ZI37+srV9zfK/cHunLZhw4duuY8derU0YcffqhffvlFixcv1rRp06wdy7XqVJT65vedc+vo6+urs2fPupRfeaeRonxG7kXBiYmJ1ntZWVlKSkpSSEhIofUrqmrVqik1NVXp6enWe7nr3JWfU5Q2efDBB7VixQqlpKRoxIgR6t27txWor1etWrU0bNgwHT582OUPZu46HhgYqNmzZys+Pl7Lli3LdxllypTRW2+9pcTERMXFxV3z8y5fvqyffvpJkvIdymTy6fZeu3at7r//fk2ZMkWDBg0q9DtdunTJJcDccccd2rJli8s0W7Zs0Z133mm9btmypTZs2KDffvtNu3btksPhULVq1RQeHq6dO3fql19+Ubt27RQUFKSgoCD9/PPPGjZs2B++2Lcgf3S78QSXLl1Sly5dtHfvXn311VfWQV1+HA6HWrRooa5du7p0k0s39iLOatWqKSkpySUoHzhwQA6HQ8HBwUXa/xVlv5N3Gbmv8/sDmOtG3r2nsDZLTU11ObA5dOiQihcvrooVK17X5xT2HQcMGKA5c+bo1KlTWrJkiRXsJal///4qVqyYEhISlJaWplOnTql06dIF1j2/7Xjz5s0u2/HN4nA4rHoVVo9atWqpRIkSLtPkDuPOu89r3bq11qxZo7i4OA0ZMuQPresffPCB4uLi9NFHHyklJUWnTp1STEzMNZcZExOjb7/9Vvv27dPMmTNdLoCvVKmSWrZs6RL+09LSdPbs2Wtuy1LOdnbl31QpZzvz8fGRv7+/JKlr165KT0/X6tWrNXPmTHXr1s3lZEnNmjVdPjs1NVVnz55Vw4YNrWUWti8syjpmjHFZj9PT05WamnrNbfV63Kjt+uuvv9awYcP073//WydPnlRqaqomTJhw1e9bUJvkfT+/3ygxMdHloD3v8WqrVq20ZcsWffzxx7rnnnusE5y5ClrXCluXNmzYUKTv1q5dO02bNk1RUVGF3kyqSpUqLsO5s7OzXYb8STmXNkycOFErV65UcHCw+wJIcHCwOnfurMGDB1uJ7/Tp01q5cqV1Fig9Pd26Fd+pU6f09NNP57syhYaGasOGDdqwYYOio6OJDqZKAAAgAElEQVSvOf62bdu2Wrp0qVJSUnTnnXeqdOnSuvvuuzVp0iS1bdvWZdorG//RRx/VrFmztGnTJmVlZWnGjBnWWLxclSpVsg7ufq/KlSvrvvvu08iRI5WWlqbU1FQ999xzBW5Ely9f1pw5c/Tbb79Jyvnj7OXlpeLFi1t1SkxM/N3PSnn//fet7zxnzhzt2LFDvXv3liQ1bNhQ33//vTZu3Kjs7GwtWrToqpWysDapVKmS2rdvr+HDh+vkyZM6f/68Ro4cqZIlS97Qg8u7775bdevW1ZAhQ3T69Gmlp6dr8ODBioyMdNmhFmbfvn1asWKFzp49K6fTafUiXHlm+lpef/11ffbZZ9YY2KSkJL399tuqW7eu9Ychr/Lly+upp57SqFGjCtzBlChRQmPHjtULL7xgHdhMnz7dOot0+vRpjRs3TklJSWrdurUk6W9/+5siIyM1duxYZWRk6MyZM3r22Wd1xx13WNd4LF26VA8//LBmzJhx1fhfKSdIrFmzRufPn5cxRgkJCXrhhRdc7sn++OOPa9asWdqwYYMuX76suLg4HThwQH379nVZzqVLl3T58mUtW7ZML7/8snXb2MaNG+vw4cPasWOHdu7cqZ07d6py5coaO3ZsoWeac128eFEXLlyQMUaZmZm6ePHiNfcTf3S7yetGHsQXxdmzZ9WuXTulpqZqzZo1Klu27FXTPP3009q8ebPOnz8vSUpISNDHH3+s5s2bW9Pc6Hp36NBBXl5eGj16tC5cuKATJ07o6aefVseOHVWhQoUi7f/uvPNOnT59WosWLZIxRuvWrXO5jXWuzz77TCtWrFB2drZWrlyp+Pj4a97H/rbbbrvu/feBAwe0YcMGXbx4UcYYfffdd5owYYJ69epV6LzDhw/XuXPndPz4cY0fP15///vfr/tgadmyZVq1apWys7O1fPlyLVu2zOU7Pvzwwzpz5oz69u2r4OBgl/Ha6enp1gFp7om/3HUh15W/f79+/fT9999rxowZunz5sr788kvNnTtXQ4YMKbB+xhhdvHjRap8LFy5Y/5+f8+fPa+nSpdY+7ODBgxo4cKDuuece68xyYfUoXbq0Hn30UT3//PM6duyY0tPTNWzYMEVGRl517YiUMwrj66+/Vnx8vPr06fO7r4XKyMhQ8eLFrevC1q5dq3nz5l1znipVqqht27YaMWKEtm7d6tK7HBMTo82bN2v69OnWdSJJSUn65JNPCq1Lnz59tHv3bk2bNk2ZmZnav3+/xo0b5/K8Im9vb/Xq1UuTJ09WfHy8BgwYYJV16dJF586d04QJE6zfIjk5Od/tLK8rf9uirGNSzvUCv/zyi86ePaunn35atWvXvub1btezX3I6napQocIfPjbLyMiQl5eXypcvb4Wqa12fVZgBAwbo3Xff1ddff63s7GytWbNG7733nmJjY61p2rZtq0WLFuns2bOqV6+efHx8FBkZqSlTplzzeDWvwtal9PT0In+3fv36aebMmercufM118Xo6GhNmTJFiYmJunz5ssaPH29d3y1Jq1ev1qBBgxQfH6+6detKugm34b2Wjz76SA0aNFCbNm1UtmxZ1a5dWzNmzLAacvbs2Vq4cKF8fX3VuHFjl4OavCpUqKCvvvpKR48eVefOnV0u7LpSq1atdO7cObVp08Z6L/fC97w/6JX17927t0aOHKmuXbsqKChImzdv1sMPP+wy/dixY/Xf//5XAQEBRb5FXH4++OADlShRQqGhoWrYsKHVLVqQxYsXq27duvL19VXLli1dnmGQu8MpX768AgMDr0qg1+JwODRw4ECNHj1a/v7+mjJliuLj460/BM2aNdPo0aP18MMPW+3fpUsXl2UUpU3mzp2r0NBQRUZGKjg4WHv27NGaNWv+0C1083I6nfr000918eJFhYWF6fbbb1d2drb++9//Xtcf/UuXLumll16yhgU+88wzmjt3rtUmhV0cW7ZsWb3yyiuKiIiQn5+fmjRpoqCgIJfejfyWMWzYMJ08edLqrs9vmujoaJUvX966CUNCQoIaN24sX19fhYWFWbe3rV+/vjXPsmXLlJmZqWrVqiksLEwXLlzQJ598Yi0/9yCpb9++8vX1te4znvuH9dKlSxo9erQqV64sf39/9ezZUw899JBmzJhhfUaXLl00ceJE9enTR/7+/po9e7Y+++wzValSxZpm4sSJqlixogIDAzVx4kRruIgkFS9eXJUrV3b5z8vLy3q+SVGUKlVKZcqU0c8//6xBgwapdOnSLn+M27dvr8cff9x6/Ue3m6K8d6VBgwZdc/+Wn2+//dZ6Pkfuf7nd6kuWLNG6deu0efNmVapUyTqRU69ePZdlPPbYY9Zv16tXL/Xq1cvlOTAOh0N//etfr3reyIkTJ35XvX19ffX5559rx44dqlq1qu666y5FRERozpw51jSF7f+qV6+ut956S8OHD1dAQIDefffdfINFTEyMZsyYIX9/fw0dOlT/+c9/1LhxY0k5wx98fX21ceNGa/pXXnlFr776qgIDA9WxY8cCv8OVv2VqaqqGDBmiChUqKCAgQP3799f//d//uTxs7pVXXrmq3W+77TbVq1dPERERql+/vurUqaN//etf12y7/J7l0r9/f02bNk3+/v4aNmyYZs6c6XKQXbJkSfXp00fLly93OcCUpLfeektbtmyxntFVs2ZNl+Gjeb9r9erV9emnnyouLk7+/v4aMGCAJk+e7PL7R0VFuYxE+OKLL1SqVCnVq1dPDodDtWvXVunSpa39R3Z2tnx9fa0D26ysLL3++usKDQ2Vr6+vWrdurYiICJcLh4tSjzfeeEN33XWX6tevr2rVqun8+fOKj48vsG1r166tb775RgkJCdbxw2OPPXZdtzGNiYlRs2bN9Je//EVBQUGaNWuWNeQ8v/bM1b9/fy1fvlxRUVEuQ7xCQ0OtfXb16tUVEBCg9u3buzyHqSChoaFavXq15s6dqwoVKigqKkoPPfTQVRcV9+/fX2vXrlVYWJjuuece630/Pz99++23SkxMVJ06deTv76+mTZu6bC8F7dOufL8o65iUc1DbqlUrVa5c2Towzl3OxIkTr+plK2x/mrf81Vdf1cSJExUYGGgdt+W33Gtp3769+vfvryZNmlhDlK48iXY99ZGkHj166LXXXtPAgQMVGBiop59+Wm+//bbLety6dWudOXPmuo9X8ypsXbre79a5c2d9/PHHiomJ0fvvvy9JV20vY8aMUVRUlBo3bmyNdKlXr568vb0l5Rz3nT9/Xu3bt7f+tjiMu0/VAQBwA7Vs2dJjn4b83nvv6fnnn//DDxhs2rSp2rRpo7Fjx96gmgHulZiYqIiICB06dMhl6BHsJzMzUxUrVtT06dNdrhG90v/G4GYAAAD8T+Octz1lZGTos88+U2Zmpk6fPq3hw4fLy8urwFsHSzYOIFFRUbrjjjt05513qnnz5tqxY4eknDsAtGvXzuoKv/JJ0ufPn1evXr0UHh6uWrVquTwXwhijoUOHKiwsTBEREVdd/Dtx4kSFhYUpPDzc5anQUs7dSCIiIhQeHq7Y2FhlZWXdxG8O2Nsrr7xiDQ3KO1Ro2rRpt7p6uAVu5AXlnurP8B2Rv/Xr1xe4z8t7JzxPx3psT9nZ2Ro/frzKly+vkJAQ7dy5UytXrnS5+19eth2ClZGRYd2CLz4+XuPHj9eOHTsUExOj0NBQjR07Vlu3btVDDz2kw4cPq1ixYnrxxRd16NAhzZo1S4cPH1ajRo20d+9eBQQE6P3339fcuXP1+eefKzU1VXfeeadWrFih2rVr66uvvtLgwYOtB0L97W9/0wsvvKB27drp0KFDatKkiXbs2KGgoCB16tRJ999/f5HuLgQAAADYjW17QK68/3daWpp116JFixZp4MCBknLu6lSlShXrKbcLFiywykJDQ9WiRQvr6ecLFy60bmkYEBCg7t27WxfWLVy4UNHR0fL29laJEiUUExNjlS1ZskSdOnWybqM3cODAQu+UAQAAANiVbQOIlHMr3eDgYI0bN07vv/++Tp06pczMTFWoUMGa5soH4OV9FkVoaOhNLQMAAAD+bG79Y4Zvovfee09Szu2/Ro4cqblz53r0BVC//fabVq1apdDQUJUqVepWVwcAAAB5nD9/XocPH1ZUVJT1LBhcH1sHkFzR0dHW0KrixYvr5MmTVi/I4cOHrdvBhYSE6MiRI9bTaXNXLinnQYpHjhyxHpZz5Xy5Zbnylh08eDDfsrxWrVp11X3EAQAA4Hk++OAD62HNuD62DCDp6ek6d+6c9QCc+Ph4lStXToGBgerataveeecdjRs3Tlu2bNHx48etJwF36dJF06ZN0913361Dhw5p/fr1eueddyRJXbt21bvvvqsuXbooLS1NCxYs0PLly62yIUOGaOjQoXI6nZo1a5YmTJggSXrkkUfUtGlTjR8/XkFBQZo2bVqBDxoMDQ2VlLNC165d+2Y20Z/asGHDCn0IGH4/2vfmo41vLtr35qONby7a9+bas2eP+vTpYx234frZNoB07dpVFy5ckMPhUIUKFfTpp59KynlCZnR0tCIiIlSyZEl9+OGH1gXqzzzzjGJiYhQWFiYvLy/FxcUpMDBQUk4vytatWxUeHi6n06kRI0aoTp06kqTmzZure/fuqlu3rhwOh3r06KH27dtLynmK64QJE9S4cWM5HA61bNlSsbGx+dY7d9hV7dq1FRkZeVPb6M+sbNmytO9NRPvefLTxzUX73ny08c1F+7oHw+V/P1sGkODgYG3atCnfsgoVKmjVqlX5lpUuXVrz58/Pt8zpdOrNN9/Um2++mW/5mDFjrnr+R67+/furf//+Rag5AAAAYG+2vgsWAAAAAM9CAAEAAADgNgQQ/On07NnzVlfB1mjfm482vrlo35uPNr65aF94Oofx5Adj/Mls27ZNDRo0UEJCAhePAQAAeCCO1/44ekAAAAAAuA0BBAAAAIDbEEAAAAAAuA0BBAAAAIDbEEAAAAAAuA0BBAAAAIDbEEAAAAAAuA0BBAAAAIDbEEAAAAAAuA0BBAAAAIDbEEAAAAAAuA0BBAAAAIDbEEAAAAAAuA0BBAAAAIDbEEAAAAAAuA0BBAAAAIDbEEAAAAAAuA0BBAAAAIDbEEAAAAAAuA0BBAAAAIDbEEAAAAAAuA0BBAAAAIDbEEAAAAAAuA0BBAAAAIDbEEAAAAAAuA0BBAAAAIDbEEAAAAAAuA0BBAAAAIDbEEAAAAAAuA0BBAAAAIDbEEAAAAAAuA0BBAAAAIDbEEAAAAAAuA0BBAAAAIDbEEAAAAAAuA0BBAAAAIDbEEAAAAAAuA0BBAAAAIDbEEAAAAAAuA0BBAAAAIDbEEAAAAAAuA0BBAAAAIDbEEAAAAAAuA0BBAAAAIDbEEAAAAAAuA0BBAAAAIDbEEAAAAAAuA0BBAAAAIDbEEAAAAAAuA0BBAAAAIDbEEAAAAAAuA0BBAAAAIDbEEAAAAAAuA0BBAAAAIDbEEAAAAAAuA0BBAAAAIDbEEAAAAAAuA0BBAAAAIDbEEAAAAAAuA0BBAAAAIDbEEAAAAAAuA0BBAAAAIDbEEA81HvvSVu33upaAAAAADcWAcRDjR4tffbZra4FAAAAcGMRQDxUsWJSZuatrgUAAABwYxFAPJSXl5SVdatrAQAAANxYBBAPRQ8IAAAA7MiWAeTixYt66KGHVKtWLd15552KiorSwYMHJUktWrRQjRo1FBkZqcjISE2dOtWa7/z58+rVq5fCw8NVq1YtLVmyxCozxmjo0KEKCwtTRESE4uLiXD5z4sSJCgsLU3h4uMaMGeNSNnPmTEVERCg8PFyxsbHKKkLXhpcXAQQAAAD2Y8sAIkmxsbHau3evtm/fro4dO2rAgAGSJIfDoalTp2rbtm3atm2bnnzySWueyZMny9vbW/v379fKlSv1+OOPKzU1VZI0d+5c7d27VwcOHNCmTZs0adIk7dmzR5L01VdfacGCBdq9e7d++OEHrVq1SitWrJAkHTp0SGPHjtXGjRu1f/9+nThxQtOnTy+0/gzBAgAAgB3ZMoCULFlS999/v/X6nnvu0eHDh63X2dnZ+c63YMECDRw4UJIUGhqqFi1aaOnSpZKkhQsX6rHHHpMkBQQEqHv37po3b55VFh0dLW9vb5UoUUIxMTFW2ZIlS9SpUycFBQVJkgYOHGiVXQtDsAAAAGBHtgwgeU2dOlWdO3e2Xo8aNUp//etf1bNnTx06dMh6PykpSSEhIdbr0NBQJSUl3bSya6EHBAAAAHZk+wDy8ssvKzExUS+//LIk6YMPPtDevXu1c+dONWnSRA888MAtrmH+uAYEAAAAduR1qytwM02ePFnx8fFau3atvL29JUlVqlSxygcPHqwRI0YoNTVVAQEBCgkJ0ZEjR1SxYkVJ0uHDhxUVFSVJCg4O1pEjR9SoUSOrLDg42KUsV96y3Avg85YVZNiwYdq3r6yOH5c6dsx5r2fPnurZs+cfaQ4AAABch3nz5l01dD49Pf0W1cZGjE1NmTLFNGjQwKSlpVnvZWZmmuTkZOv14sWLTWhoqPV6/Pjxpl+/fsYYYw4ePGgqVqxoUlJSjDHGzJkzx7Ru3dpkZWWZlJQUExISYnbv3m2MMWbdunWmbt265ty5c+bChQumYcOGZvny5dZyqlSpYpKTk012drbp2LGjiYuLy7fOCQkJRpJJSEgwzZoZEx19Y9sEAAAAf8yVx2v4fWzZA3Ls2DGNGDFCNWvWVMuWLWWMkbe3t9auXasOHTro0qVLcjgcCgoK0ieffGLN98wzzygmJkZhYWHy8vJSXFycAgMDJUnR0dHaunWrwsPD5XQ6NWLECNWpU0eS1Lx5c3Xv3l1169aVw+FQjx491L59e0lS9erVNWHCBDVu3FgOh0MtW7ZUbGxsod+Bi9ABAABgRw5jjLnVlUCObdu2qUGDBkpISNCzz0bK319auPBW1woAAAC5rjxei4yMvNXV+Z9k+4vQ/1dxFywAAADYEQHEQzEECwAAAHZEAPFQ9IAAAADAjgggHorngAAAAMCOCCAeiiFYAAAAsCMCiIdiCBYAAADsiADioRiCBQAAADsigHgohmABAADAjgggHoohWAAAALAjAoiHogcEAAAAdkQA8VBcAwIAAAA7IoB4KIZgAQAAwI4IIB6KIVgAAACwIwKIh6IHBAAAAHZEAPFQXAMCAAAAOyKAeCiGYAEAAMCOCCAeiiFYAAAAsCMCiIeiBwQAAAB2RADxUFwDAgAAADsigHgohmABAADAjgggHoohWAAAALAjAoiHogcEAAAAdkQA8VBcAwIAAAA7IoB4qGLFpOxsyZhbXRMAAADgxiGAeCgvr5x/GYYFAAAAOyGAeKhixXL+ZRgWAAAA7IQA4qFye0AIIAAAALATAoiHYggWAAAA7IgA4qEYggUAAAA7IoB4KHpAAAAAYEcEEA/FNSAAAACwIwKIh2IIFgAAAOyIAOKhGIIFAAAAOyKAeCh6QAAAAGBHBBAPxTUgAAAAsCMCiIdiCBYAAADsiADioRiCBQAAADsigHgohmABAADAjgggHoohWAAAALAjAoiHYggWAAAA7IgA4qHoAQEAAIAdEUA8FD0gAAAAsCMCiIfiInQAAADYEQHEQzEECwAAAHZEAPFQDMECAACAHRFAPBRDsAAAAGBHBBAPxRAsAAAA2BEBxEMxBAsAAAB2RADxUPSAAAAAwI4IIB6Ka0AAAABgRwQQD8UQLAAAANgRAcRDORyS08kQLAAAANgLAcSDFStGDwgAAADshQDiwby8CCAAAACwFwKIB/PyYggWAAAA7IUA4sEYggUAAAC7IYB4MHpAAAAAYDcEEA/GNSAAAACwGwKIB2MIFgAAAOyGAOLBGIIFAAAAuyGAeDB6QAAAAGA3BBAPxjUgAAAAsBsCiAdjCBYAAADshgDiwRiCBQAAALshgHgwhmABAADAbgggHowhWAAAALAbAogHYwgWAAAA7IYA4sHoAQEAAIDdEEA8GD0gAAAAsBsCiAfjInQAAADYDQHEgzEECwAAAHZjywBy8eJFPfTQQ6pVq5buvPNORUVFKTExUZL066+/ql27doqIiFD9+vX19ddfW/OdP39evXr1Unh4uGrVqqUlS5ZYZcYYDR06VGFhYYqIiFBcXJzLZ06cOFFhYWEKDw/XmDFjXMpmzpypiIgIhYeHKzY2VllFTBUMwQIAAIDd2DKASFJsbKz27t2r7du3q2PHjhowYIAkadSoUbr33nu1b98+zZo1S7169bICweTJk+Xt7a39+/dr5cqVevzxx5WamipJmjt3rvbu3asDBw5o06ZNmjRpkvbs2SNJ+uqrr7RgwQLt3r1bP/zwg1atWqUVK1ZIkg4dOqSxY8dq48aN2r9/v06cOKHp06cX6TswBAsAAAB2Y8sAUrJkSd1///3W63vuuUdHjhyRJC1atEgDBw6UJDVs2FBVqlTR+vXrJUkLFiywykJDQ9WiRQstXbpUkrRw4UI99thjkqSAgAB1795d8+bNs8qio6Pl7e2tEiVKKCYmxipbsmSJOnXqpKCgIEnSwIEDrbLCMAQLAAAAdmPLAJLX1KlT1blzZ506dUqZmZmqUKGCVRYSEqKkpCRJUlJSkkJCQqyy0NDQm1pWGIZgAQAAwG68bnUFbraXX35ZiYmJmj59us6dO3erq3Nd6AEBAACA3dg6gEyePFnx8fFau3atvL295e3tLS8vL508edLqBTl8+LCCg4Ml5fSGHDlyRBUrVrTKoqKiJEnBwcE6cuSIGjVqdNV8uWW58pYdPHgw37KCDBs2TGXLltW2bdL581LHjlLPnj3Vs2fPG9EsAAAAKIJ58+ZdNXQ+PT39FtXGRoxNTZkyxTRo0MCkpaW5vN+vXz8zfvx4Y4wxmzdvNlWrVjWZmZnGGGPGjx9v+vXrZ4wx5uDBg6ZixYomJSXFGGPMnDlzTOvWrU1WVpZJSUkxISEhZvfu3cYYY9atW2fq1q1rzp07Zy5cuGAaNmxoli9fbi2nSpUqJjk52WRnZ5uOHTuauLi4fOuckJBgJJmEhARjjDF9+xrTuPENbhgAAAD8bnmP13D9bNkDcuzYMY0YMUI1a9ZUy5YtZYyRt7e3vv32W7366quKjo5WRESESpYsqQ8//FDFihWTJD3zzDOKiYlRWFiYvLy8FBcXp8DAQElSdHS0tm7dqvDwcDmdTo0YMUJ16tSRJDVv3lzdu3dX3bp15XA41KNHD7Vv316SVL16dU2YMEGNGzeWw+FQy5YtFRsbW6TvwRAsAAAA2I3DGGNudSWQY9u2bWrQoIESEhIUGRmpgQOlrVtz/gMAAMCtl/d4DdfvT3EXrP9VPAcEAAAAdkMA8WAMwQIAAIDdEEA8GM8BAQAAgN0QQDwYPSAAAACwGwKIB+MaEAAAANgNAcSDMQQLAAAAdkMA8WAMwQIAAIDdEEA8GD0gAAAAsBsCiAfjGhAAAADYDQHEgzEECwAAAHZDAPFgDMECAACA3RBAPBg9IAAAALAbAogH4xoQAAAA2A0BxIMxBAsAAAB2QwDxYF5eOf9mZ9/aegAAAAA3CgHEgxUrlvMvvSAAAACwCwKIB8vtASGAAAAAwC4IIB4sN4BwJywAAADYBQHEgzEECwAAAHZDAPFgDMECAACA3RBAPBhDsAAAAGA3BBAPxhAsAAAA2A0BxIPRAwIAAAC7IYB4MHpAAAAAYDcEEA/GRegAAACwGwKIB2MIFgAAAOyGAOLBGIIFAAAAuyGAeDCGYAEAAMBuCCAejCFYAAAAsBsCiAdjCBYAAADshgDiwegBAQAAgN0QQDwYPSAAAACwGwKIB+MidAAAANgNAcSDMQQLAAAAdkMA8WAMwQIAAIDdEEA8GEOwAAAAYDcEEA/GECwAAADYDQHEgzEECwAAAHZDAPFg9IAAAADAbgggHoweEAAAANgNAcSDcRE6AAAA7IYA4sGc//+vwxAsAAAA2AUBxIM5HDnDsOgBAQAAgF0QQDyclxcBBAAAAPZBAPFwXl4MwQIAAIB9EEA8HEOwAAAAYCcEEA/HECwAAADYCQHEwzEECwAAAHZCAPFwDMECAACAnRBAPBw9IAAAALATAoiHowcEAAAAdkIA8XBchA4AAAA7IYB4OIZgAQAAwE4IIB6OIVgAAACwEwKIh2MIFgAAAOyEAOLhGIIFAAAAOyGAeDiGYAEAAMBOCCAejh4QAAAA2AkBxMPRAwIAAAA7IYB4OC5CBwAAgJ0QQDwcQ7AAAABgJwQQD8cQLAAAANgJAcTDMQQLAAAAdkIA8XAMwQIAAICdEEA8HEOwAAAAYCcEEA9HDwgAAADshADi4egBAQAAgJ0QQDwcF6EDAADATgggHo4hWAAAALATAoiHYwgWAAAA7IQA4uEYggUAAAA7sWUAefLJJ1W9enU5nU7t2rXLer9FixaqUaOGIiMjFRkZqalTp1pl58+fV69evRQeHq5atWppyZIlVpkxRkOHDlVYWJgiIiIUFxfn8nkTJ05UWFiYwsPDNWbMGJeymTNnKiIiQuHh4YqNjVXWdY6nYggWAAAA7MSWAaRr167auHGjQkNDXd53OByaOnWqtm3bpm3btunJJ5+0yiZPnixvb2/t379fK1eu1OOPP67U1FRJ0ty5c7V3714dOHBAmzZt0qRJk7Rnzx5J0ldffaUFCxZo9+7d+uGHH7Rq1SqtWLFCknTo0CGNHTtWGzdu1P79+3XixAlNnz79ur4LQ7AAAABgJ7YMIE2aNFHlypVljLmqLDs7O995FixYoIEDB0qSQkND1aJFCy1dulSStHDhQj322GOSpICAAHXv3l3z5s2zyqKjo+Xt7a0SJUooJibGKluyZIk6deqkoKAgSdLAgQOtsqJiCBYAAADsxJYB5FpGjRqlv/71r+rZs6cOHTpkvZ+UlKSQkBDrdWhoqJKSkm5aWVEVK8YQLNTulr8AABzkSURBVAAAANjHnyqAfPDBB9q7d6927typJk2a6IEHHrjVVSoUPSAAAACwE69bXQF3qlKlivX/gwcP1ogRI5SamqqAgACFhIToyJEjqlixoiTp8OHDioqKkiQFBwfryJEjatSokVUWHBzsUpYrb9nBgwfzLbuWYcOGqWzZspKkn36SkpOlefN6qmfPnn/k6wMAAOA6zJs376rh8+np6beoNjZibCw0NNTs3LnTGGNMZmamSU5OtsoWL15sQkNDrdfjx483/fr1M8YYc/DgQVOxYkWTkpJijDFmzpw5pnXr1iYrK8ukpKSYkJAQs3v3bmOMMevWrTN169Y1586dMxcuXDANGzY0y5cvt5ZTpUoVk5ycbLKzs03Hjh1NXFxcgfVNSEgwkkxCwv/X3t3HZlneCxz/9UVlJ/NwwCgi2BZsC4QOpOAYyg7g2Ai6OJ3bULaGSUJgU6Mm6kzmpjjjdqIuMRv+scx3DUEheNzwJTlmYmPOUYEzOMwXRKB1LwIBdFPQDbjOH7WPorgJa58+183nkzS1z03p3Wt3XL/+rrv36tJrN9yQ0okn9tCCAADwTznYz2scmkJOQBYsWBArVqyIrVu3xowZM+LYY4+NtWvXxtlnnx1//etfo6qqKo4//vh45JFHSp9z1VVXxdy5c6OxsTFqa2tj0aJFMXDgwIiIaGtri1WrVkVTU1NUV1fHlVdeGaNHj46IiClTpsSsWbOipaUlqqqq4oILLoizzjorIiKGDRsWCxcujNNPPz2qqqpi2rRpMX/+/EP6XmzBAgCgSKpSOsiviqJPrFmzJsaPHx+rV6+O1tbWiIi4+eaIH/84YufOPj45AAAO+vMah+aIugk9R54DAgBAkQiQCmcLFgAARSJAKpzngAAAUCQCpMKZgAAAUCQCpMLV1kbs3x/hVwUAAFAEAqTC1dR0vbcNCwCAIhAgFa72vSe12IYFAEARCJAK1x0gJiAAABSBAKlw3VuwTEAAACgCAVLhbMECAKBIBEiFswULAIAiESAVzhYsAACKRIBUOBMQAACKRIBUOBMQAACKRIBUODehAwBQJAKkwtmCBQBAkQiQCmcLFgAARSJAKpwtWAAAFIkAqXC2YAEAUCQCpMLZggUAQJEIkApnCxYAAEUiQCpc9wTEFiwAAIpAgFQ4ExAAAIpEgFQ4N6EDAFAkAqTCuQkdAIAiESAVzhYsAACKRIBUOFuwAAAoEgFS4WzBAgCgSARIhbMFCwCAIhEgFc5zQAAAKBIBUuFMQAAAKBIBUuFMQAAAKBIBUuGqqyOqqkxAAAAoBgGSgdpaAQIAQDEIkAzU1tqCBQBAMQiQDNTUmIAAAFAMAiQDtmABAFAUAiQDNTW2YAEAUAwCJAMmIAAAFIUAyYCb0AEAKAoBkgE3oQMAUBQCJAO2YAEAUBQCJAO2YAEAUBQCJAO2YAEAUBQCJAO2YAEAUBQCJAOeAwIAQFEIkAyYgAAAUBQCJAMCBACAohAgGbAFCwCAohAgGTABAQCgKARIBjwHBACAohAgGfAcEAAAikKAZMAWLAAAikKAZMAWLAAAikKAZMAWLAAAikKAZMAWLAAAikKAZMBzQAAAKAoBkgETEAAAikKAZMBN6AAAFIUAyYCb0AEAKAoBkgFbsAAAKAoBkgFbsAAAKAoBkgFbsAAAKAoBkgFbsAAAKAoBkgHPAQEAoCgESAZMQAAAKAoBkgE3oQMAUBQCJANuQgcAoCgESAZswQIAoCgESAZswQIAoCgESAZswQIAoCgKGSCXXXZZDBs2LKqrq2PdunWl17dv3x4zZ86M5ubmGDNmTLS3t5eO7dmzJ2bPnh1NTU0xcuTIWLZsWelYSikuvfTSaGxsjObm5li0aNEBX+/GG2+MxsbGaGpqimuvvfaAY3fccUc0NzdHU1NTzJ8/P/YdxijDFiwAAIqikAHy9a9/PZ555ploaGg44PVrrrkmJk2aFBs2bIg777wzZs+eXQqCW265Jfr16xevvPJKPP744/Hd7343du3aFRER9913X7z00kuxcePGePbZZ+Pmm2+OF198MSIinn766ViyZEmsX78+fve738UTTzwRjz32WEREbN68OX74wx/GM888E6+88kq8/vrr8Ytf/OKQvx/PAQEAoCgKGSCTJ0+Ok046KVJKB7z+4IMPxoIFCyIiYsKECTFkyJBYuXJlREQsWbKkdKyhoSGmTp0ay5cvL33evHnzIiJiwIABMWvWrFi8eHHpWFtbW/Tr1y+OPvromDt3bunYsmXL4itf+Uocf/zxERGxYMGC0rFDYQICAEBRFDJADmbnzp2xd+/eOOGEE0qv1dfXR2dnZ0REdHZ2Rn19felYQ0NDrx47FAIEAICiOGICJGc1NV3v9+/v2/MAAIB/Vm1fn0C5DBw4MGpra2Pbtm2lKciWLVuirq4uIrqmIR0dHTFo0KDSsRkzZkRERF1dXXR0dMTEiRM/8nndx7p9+NimTZsOeuzvueKKK6J///6lj197LSLiwti798I4+ujDXAAAAA7J4sWLP7J9/s033+yjsymQVGANDQ1p7dq1pY8vuuiidP3116eUUnruuefS0KFD0969e1NKKV1//fXpoosuSimltGnTpjRo0KC0Y8eOlFJKd999d5o+fXrat29f2rFjR6qvr0/r169PKaX01FNPpZaWlrR79+70zjvvpAkTJqQVK1aU/p4hQ4akrVu3pv3796dzzjknLVq06GPPd/Xq1Ski0urVqw94/YEHUopIaffuHloYAAAOy8f9vMYnV8gJyIIFC2LFihWxdevWmDFjRhx77LGxYcOG+MlPfhJtbW3R3NwcxxxzTDzwwANR897+pquuuirmzp0bjY2NUVtbG4sWLYqBAwdGRERbW1usWrUqmpqaorq6Oq688soYPXp0RERMmTIlZs2aFS0tLVFVVRUXXHBBnHXWWRERMWzYsFi4cGGcfvrpUVVVFdOmTYv58+cf8vfTvQXLfSAAAOSuKqUP/aoo+syaNWti/PjxsXr16mhtbS29vmxZxNe+FrFzZ8SAAX14ggAAR7iP+3mNT85N6BnonoB4FggAALkTIBmofW+jnC1YAADkToBkQIAAAFAUAiQDtmABAFAUAiQDJiAAABSFAMlAd4CYgAAAkDsBkgHPAQEAoCgESAZswQIAoCgESAbchA4AQFEIkAyYgAAAUBQCJAMCBACAohAgGbAFCwCAohAgGTABAQCgKARIBjwHBACAohAgGfAcEAAAikKAZMAWLAAAikKAZMAWLAAAikKAZMAWLAAAikKAZMAWLAAAikKAZMBzQAAAKAoBkgETEAAAikKAZECAAABQFAIkA9Xv/a9kCxYAALkTIBmoquq6D8QEBACA3AmQTNTWmoAAAJA/AZIJExAAAIpAgGSitlaAAACQPwGSiZoaW7AAAMifAMmECQgAAEUgQDIhQAAAKAIBkglbsAAAKAIBkgkTEAAAikCAZMJzQAAAKAIBkgnPAQEAoAgESCZswQIAoAgESCbchA4AQBEIkEyYgAAAUAQCJBMCBACAIhAgmbAFCwCAIhAgmTABAQCgCARIJjwHBACAIhAgmfAcEAAAikCAZMIWLAAAikCAZMJN6AAAFIEAyYQJCAAARSBAMiFAAAAoAgGSCVuwAAAoAgGSCRMQAACKQIBkQoAAAFAEAiQTtmABAFAEAiQTJiAAABSBAMmECQgAAEUgQDJhAgIAQBEIkEwIEAAAikCAZMIWLAAAikCAZMIEBACAIhAgmRAgAAAUgQDJhC1YAAAUgQDJhAkIAABFIEAyUVtrAgIAQP4ESCZqakxAAADInwDJhC1YAAAUgQDJhJvQAQAoAgGSCRMQAACKQIBkQoAAAFAEAiQTNTUR+/dHpNTXZwIAAIdPgGSitrbrvftAAADImQDJhAABAKAIBEgmamq63rsPBACAnAmQTHRPQAQIAAA5EyCZ6J6A2IIFAEDOjsgAaWhoiFGjRsW4ceOitbU1HnrooYiI2L59e8ycOTOam5tjzJgx0d7eXvqcPXv2xOzZs6OpqSlGjhwZy5YtKx1LKcWll14ajY2N0dzcHIsWLTrg6914443R2NgYTU1Nce211x7WOZuAAABQBLV9fQJ9obq6Oh588MH4zGc+c8Dr11xzTUyaNCkee+yxWLVqVZx33nmxZcuWqKmpiVtuuSX69esXr7zySmzZsiUmTpwYZ555ZgwYMCDuu+++eOmll2Ljxo2xa9euGDduXJx55pkxatSoePrpp2PJkiWxfv36qK6ujjPOOCPOOOOMmDlz5iGdswABAKAIjsgJSEop0kEeqPHggw/GggULIiJiwoQJMWTIkFi5cmVERCxZsqR0rKGhIaZOnRrLly8vfd68efMiImLAgAExa9asWLx4celYW1tb9OvXL44++uiYO3du6dihsAULAIAiOCIDJCKira0txo4dG/PmzYsdO3bEzp07Y+/evXHCCSeU/kx9fX10dnZGRERnZ2fU19eXjjU0NPzTxw6FCQgAAEVwRAZIe3t7rF27NtasWRPHHXdczJkzJyLioFORSiFAAAAogiPyHpChQ4dGRERNTU1cfvnlMWLEiBg4cGDU1tbGtm3bSlOQLVu2RF1dXUR0TUM6Ojpi0KBBpWMzZsyIiIi6urro6OiIiRMnfuTzuo91++Cxj3PFFVdE//79D3ittfXCiLjQFiwAgDJZvHjxR7bOv/nmm310NsVRlSr5P/v3gt27d8ff/va30g/4P/3pT+ORRx6Jp556KubOnRv19fVx3XXXxfPPPx9f/epXSzehL1y4MDo6OuLOO++MzZs3x6RJk+KFF16IgQMHxj333BP3339/PPHEE/HGG29Ea2trrFixIkaPHh0rV66MSy65JJ577rmorq6OyZMnx8KFC+Oss876yLmtWbMmxo8fH6tXr47W1tYDjv3P/0RMmhTxf/8X0dJSlqUCAOBD/t7Pa3wyR9wEZOvWrXH++efH/v37I6UUw4cPj3vvvTciIn7yk59EW1tbNDc3xzHHHBMPPPBA1Lx39/dVV10Vc+fOjcbGxqitrY1FixbFwIEDI6LrfpJVq1ZFU1NTVFdXx5VXXhmjR4+OiIgpU6bErFmzoqWlJaqqquKCCy44aHz8I25CBwCgCI64CUgl+3tF/b//G9HaGrFqVcT48X10ggAARzgTkH/eEXkTeo7chA4AQBEIkEzYggUAQBEIkEyYgAAAUAQCJBMCBACAIhAgmbAFCwCAIhAgmTABAQCgCARIJkxAAAAoAgGSCRMQAACKQIBkQoAAAFAEAiQTtmABAFAEAiQTJiAAABSBAMmEAAEAoAgESCZswQIAoAgESCaqqyOqqkxAAADImwDJSG2tCQgAAHkTIBmpqTEBAQAgbwIkI7W1AgQAgLwJkIzU1NiCBQBA3gRIRkxAAADInQDJiAABACB3AiQjtmABAJA7AZIRExAAAHInQDLiOSAAAOROgGTEc0AAAMidAMmILVgAAOROgGTETegAAOROgGTEBAQAgNwJkIwIEAAAcidAMmILFgAAuRMgGTEBAQAgdwIkIwIEAIDcCZCM2IIFAEDuBEhGTEAAAMidAMmICQgAALkTIBkxAQEAIHcCJCMCBACA3AmQjNiCBQBA7gRIRkxAAADInQDJiAABACB3AiQjtmABAJA7AZIRExAAAHInQDJiAgIAQO4ESEZMQAAAyJ0AyYgAAQAgdwIkI7ZgAQCQOwGSERMQAAByJ0AyIkAAAMidAMmILVgAAOROgGTEBAQAgNwJkIyYgAAAkDsBkhETEAAAcidAMiJAAADInQDJiC1YAADkToBkxAQEAIDcCZCMCBAAAHInQDJiCxYAALkTIBmprY1IKWL//r4+EwAAODwCJCO1tV3vbcMCACBXAiQjgwd3vX/22b49DwAAOFwCJCNf+ELE2LER113X12cCAACHR4BkpLo6YuHCiN/8pusNAAByI0Ayc845Ea2tXVOQlPr6bAAA4NAIkMxUVUXccENEe3vEk0/29dkAAMChESAZOuusiM9+NuKHPzQFAQAgLwIkQ91TkP/+74gnnujrswEAgE9OgGTqS1+KmDTJFAQAgLwIkEx1T0Gefz7i0Uf7+mwAAOCTESAZ+8IXIj7/eVMQAADyIUAy1j0FWbMmYvHivj4bAAD4xwRI5qZOjTjvvIhvfjPisssi3n67r88IAAA+ngApgIceivjpTyN+8YuIsWMjnn66r8+osi02LupV1rf3WePeZX17nzXuXdaXSidAymDjxo1xxhlnxIgRI2LixInx4osv9ujfX1MTccUVEevWRZx4YtdUxDTk4/kXc++yvr3PGvcu69v7rHHvsr5UOgFSBvPnz48FCxbEyy+/HFdffXXMmTOnV75OU1PEypURt97aNQ1paem6QX3NGjepAwBQGQRIL9u+fXusXr06vvnNb0ZExPnnnx+vvfZabNq0qVe+Xvc0ZO3aiMmTI372s4jx4yPq6yMuuSTiv/4rYs+eXvnSAADwD9X29QkU3WuvvRaDBw+O6ur3W6+uri46Oztj+PDhvfZ1m5sj7rsv4m9/i2hvj3j44Yj//M+IRYu6jg8eHNHQEDFsWNf7+vqIAQMijj32/bd//deIf/mXiKOPfv+tpqbrt28BAMDhECAVZM97o4mevkfk3/4t4tvfjpgzJ2LDhoiXX4744x+73l58MeLJJyO2bv3kf99RRx34Vlv7fpx0B0p19ftvVVXvv3V/HHHg690ff/D1D/9zt8MJoA9+zgsvvBmTJ6/5yOvCqmf87ndvxr//+5q+Po1Cs8a9y/r2Pmvcu3pjfX/844hPfapH/8psdf+ctseWksNWlZK7A3rT9u3bo6mpKXbu3FmaggwePDieeeaZj0xAHnjggfjWt77VF6cJAMAhuP/++0tb7Dk0JiC97Pjjj4/W1ta47777Ys6cObF06dI4+eSTD7r9asaMGXH//fdHQ0NDfMp/ZgAAqDh79uyJLVu2xIwZM/r6VLJlAlIGGzZsiG9/+9uxY8eO6N+/f9x1110xevTovj4tAAAoOwECAACUjV/DCwAAlI0AAQAAykaAVIiNGzfGGWecESNGjIiJEyf2+K/izVlDQ0OMGjUqxo0bF62trfHQQw9FRNdvGJs5c2Y0NzfHmDFjor29vfQ5e/bsidmzZ0dTU1OMHDkyli1bVjqWUopLL700Ghsbo7m5ORZ1PxzlPTfeeGM0NjZGU1NTXHvttQccu+OOO6K5uTmamppi/vz5sW/fvl78znvHZZddFsOGDYvq6upYt25d6fVKW89f//rXMWrUqBgxYkR87Wtfi7feequnl6LXfNwaT506NYYPHx6tra3R2toat912W+mYNf7k3n333TjvvPNi5MiRMW7cuJgxY0a8+uqrEeE67ikHW+PuB+i6jnvGjBkz4tRTT41x48bFlClT4re//W1EuIZ70ofXeO3atRHhGq4IiYpw5plnpnvvvTellNLSpUvTaaed1sdnVDmGDRuW1q1b95HX586dmxYuXJhSSun5559PQ4cOTXv37k0ppXTDDTekiy66KKWU0ubNm9MJJ5yQdu7cmVJK6Z577knTp09PKaW0c+fOVF9fn1544YWUUkorV65MLS0tac+ePendd99NEyZMSI8++mhKKaVNmzalk046KW3bti2llNI555yTbr/99l78zntHe3t7+sMf/pCGDRuW1q5dW3q9ktbzrbfeSoMGDUobNmxIKaV0ySWXpKuuuqpX16UnfdwaT506NT3yyCMH/Rxr/Mm988476bHHHit9/POf/zxNnTo1pZTSRRdd5DruAQdb42nTpqWUXMc95c033yz98/Lly9PYsWNTSq7hnvRxa+wa7nsCpAJs27Yt9e/fP+3bt6/02oknnpheffXVPjyrytHQ0HDAD3HdPv3pT6etW7eWPp44cWJ68sknU0opjR49Oj377LOlY9/4xjfSHXfckVJK6eyzz05LliwpHbv66qvTD37wg5RSShdffHH6j//4j9Kx22+/PbW1taWUUrr55pvTd77zndKxRx99NH3+85/viW+xT3x4XStpPR966KE0c+bM0rEXXnghDR069J//psvsw2s8derU9PDDDx/0z1rjw7dq1ao0bNiwlJLruLd8cI1dxz3vrrvuSq2trSkl13Bv+eAau4b7ni1YFeC1116LwYMHlx5UGBFRV1cXnZ2dfXhWlaWtrS3Gjh0b8+bNix07dsTOnTtj7969ccIJJ5T+TH19fWnNOjs7o76+vnSsoaGhV4/lrtLW82DHXn/99di/f3+Pfc995Xvf+16MHTs2Lrzwwti8eXPpdWt8+G677bY499xzXce9qHuNu7mOe8acOXOirq4urrvuurj33ntdw73gw2vczTXctwQIFa+9vT3Wrl0ba9asieOOOy7mzJkTEV17MSEn999/f7z00kuxdu3amDx5cnz5y1/u61PK3k033RSvvvpq3HTTTX19KoX14TV2Hfece+65Jzo7O+PGG2+Mq6++OiL8f1tPO9gau4b7ngCpACeffHL86U9/OqB2Ozs7o66urg/PqnIMHTo0IiJqamri8ssvj/b29hg4cGDU1tbGtm3bSn9uy5YtpTWrr6+Pjo6Ogx6rq6vr8WO5q7T1rKuriy1btpSObd68+SNTwhwNGTKk9M8XX3xxbNq0KXbt2hUR1vhw3HLLLfHwww/H448/Hv369XMd94IPr3GE67g3tLW1xVNPPRUREUcddZRruBe0tbXFb37zm9i1a5druBL09R4wukybNi3dfffdKaWu/YBuQu/y9ttvpzfeeKP08a233pqmTJmSUuq6Ue/6669PKaX03HPPHXCj3vXXX1+6iWzTpk1p0KBBaceOHSmllO6+++40ffr0tG/fvrRjx45UX1+f1q9fn1JK6amnnkotLS1p9+7d6Z133kkTJkxIK1asKP09Q4YMSVu3bk379+9P55xzTlq0aFFZ1qE3fPj+hEpaz7/85S9p0KBB6eWXX04p5XtT3gfXeO/evQfs6166dGlqaGgofWyND82tt96axo8ff8C/H1JyHfekg62x67hnvPHGG+mPf/xj6ePly5enk08+OaXkGu4pH7fGruHKIEAqxMsvv5wmTZqUmpub02mnnVa6oI90mzZtSuPGjUtjx45NY8aMSeeee27q6OhIKaW0devW9KUvfSk1NTWllpaWtHLlytLnvf3222nWrFnplFNOSSNGjEhLly4tHdu3b1+65JJL0vDhw1NjY2P62c9+dsDX/NGPfpSGDx+eTjnllPT973//gGO//OUv0ymnnJIaGxvTvHnzSv+nkJP58+enoUOHpqOOOiqdeOKJqampKaVUeev5q1/9Ko0cOTI1NTWl8847L/35z3/ujeXoFQdb4927d6cJEyakMWPGpLFjx6bp06cf8NvdrPEn9/vf/z5VVVWlxsbGNG7cuHTqqaemz33ucykl13FP+bg1fvvtt13HPaCjoyN99rOfLa3jF7/4xdJ/rHAN94yDrfG6detcwxWiKiWbDQEAgPIo+AYzAACgkggQAACgbAQIAABQNgIEAAAoGwECAACUjQABAADKRoAAAABlI0AAAICyESAAAEDZCBAAAKBsBAgAAFA2AgQAACgbAQIAAJSNAAEAAMpGgAAAAGUjQAAAgLIRIAAAQNkIEAAAoGwECAAAUDYCBAAAKBsBAgAAlI0AAQAAykaAAAAAZSNAAACAshEgAABA2QgQAACgbAQIAABQNgIEAAAoGwECAACUjQABAADKRoAAAABlI0AAAICyESAAAEDZCBAAAKBsBAgAAFA2AgQAACgbAQIAAJSNAAEAAMpGgAAAAGUjQAAAgLIRIAAAQNkIEAAAoGwECAAAUDYCBAAAKBsBAgAAlM3/A6OHQZWDZrmcAAAAAElFTkSuQmCC'
p160
tp161
sa(dp162
g91
I150
sg92
S'IDR Peaks'
p163
sg94
(g95
((lp164
(lp165
g98
ag6
(g10
S'\x00\x00\x00\x00\x00\xc0b@'
p166
tp167
Rp168
aa(lp169
g103
ag6
(g10
S'\x00\x00\x00\x00\x00\xe0x@'
p170
tp171
Rp172
aa(lp173
g108
ag6
(g10
S'\x00\x00\x00\x00\x00\xdc\x81@'
p174
tp175
Rp176
aa(lp177
g113
ag6
(g10
S'\x00\x00\x00\x00\x00\xd0\x89@'
p178
tp179
Rp180
aa(lp181
g118
ag6
(g10
S'\x00\x00\x00\x00\xb8\xd0\x05A'
p182
tp183
Rp184
aa(lp185
g123
ag6
(g10
S'O\x1b\xe8\xb4\x01\xa5\xb0@'
p186
tp187
Rp188
aatp189
Rp190
S'iVBORw0KGgoAAAANSUhEUgAAAyAAAAJYCAYAAACadoJwAAAABHNCSVQICAgIfAhkiAAAAAlwSFlzAAAPYQAAD2EBqD+naQAAIABJREFUeJzs3X1cVGX+//H3zKDiDaCoqIiApmRZpmiappmmke6upYaFSuVduuauX7K0/Gbmdmdl69qu4br+zFTC200tS8rcRWozb1NrLZMVMNHUQLC8Czm/P4jzdQQVlWCus6/n4+EDOefMOdecuWHe8/lcMy7LsiwBAAAAQAVwV/YAAAAAAPz3IIAAAAAAqDAEEAAAAAAVhgACAAAAoMIQQAAAAABUGAIIAAAAgApDAAEAAABQYQggAAAAACoMAQQAAABAhSGAAAAAAKgwBBAAAAAAFYYAAgAAAKDCEEAAAAAAVBgCCAAAAIAKQwABAAAAUGEIIAAAAAAqDAEEAAAAQIUhgAAAAACoMAQQAAAAABWGAAIAAACgwhBAAAAAAFQYAggAAACACkMAAQAAAFBhCCAAAAAAKgwBBAAAAECFIYAAAAAAqDAEEAAAAAAVhgACAAAAoMIQQAAAAABUGAIIAAAAgApDAAEAAABQYQggAAAAACoMAQQAAABAhSGAAAAAAKgwBBAAAAAAFYYAAgAAAKDCEEAAAAAAVBgCCAAAAIAKQwABAAAAUGEIIAAAAAAqDAEEAAAAQIUhgAAAAACoMAQQ4Gepqalyu90qLCws933v379fgYGBysjIuOA28fHxGjZs2EX3M3XqVHXt2vWqxnL27Fm53W5t2LBBkvTxxx8rMDBQlmVd1X7P99vf/lYPP/yw/XvTpk01b968cj2GJL344ou66667yn2/5yooKNDgwYNVt25dBQYG6vjx47/o8QDTrF27Vtdee60CAwM1efJkLViwQDfeeKO9vizPb7g8kydPVvfu3St7GMAVIYDAGLfffruqVaumwMBA1a5dW61bty73F7Qul6tc91esSZMmys/PV2RkZJkvc6EX7OU9xi5duig/P79M+x06dKgeeOCBMu03MTFRc+bMudrheSntnDz55JNau3ZtuR7nfMuXL1dqaqqysrKUn5+vgICActv3k08+qdatWysoKEiNGzfWoEGD9O2333pts3PnTnXr1k21atVSWFiYpk6d6rV+yZIluu222xQUFCSPx1MiRL/11lsKCAhQYGCg/a9KlSpq27at13ZTpkxR48aNFRAQoNtvv11ffvml1/qkpCR7rE2aNFFCQoLOnDlT5nGca+vWrapatapuu+22yzpfv4T169erZ8+eqlevntxut/7zn/9U2LHPf0MgPT1dbrdbAQEBCgoKUp06dXTTTTcpISFB+/fv97psWFiYqlevrsDAQAUHB+vmm2/WqlWrvLaxLEtPPfWUQkNDFRAQoB49emj37t0XHdOkSZPUtm1bVatWTT169CjT9Rg7dqweeeQR5efn69lnn9UDDzygXbt2XXD7Jk2aaMGCBWXat4mKb9eaNWsqMDBQ9erVU/fu3fXpp5+W63F+qb9ZwC+NAAJjuFwuTZw4Ufn5+crNzdXEiRM1YsQI+w83fMPZs2fLvZpS2fbu3atmzZqpZs2aV7yPc1+on8vtduvNN9/U999/r927d8vlcuk3v/mNvf6HH37QXXfdpa5duyonJ0dr167V3LlzNXPmTHub4OBgPfLII/rTn/5U6jEGDRqk48ePKz8/X/n5+crJyVG9evW8wuQrr7yi+fPn68MPP9TRo0fVuXNnxcTE6MSJE5KKQtADDzygp59+Wnl5efrXv/6llJQU/eEPfyjzOIqdPn1aQ4cO1e23337J83YxP/3001VdvljNmjX14IMPauHChb/oC7qyjtflcunf//638vLylJubq6SkJB0+fFg33nijdu7c6bXdnDlzlJ+fryNHjig2NlYDBw5UVlaWvc20adOUlJSk9evX68iRI2rfvr1iYmJ06tSpCx6/RYsWev755zV8+PAyjbewsFD79u1TmzZtyrR9ZbrQ47C87kvnW7t2rfLz87V//35dd9116tOnj/2YAv6rWYAhbr/9dmvy5Mley+rVq2f98Y9/tCzLsk6dOmU9+eST1jXXXGMFBwdb3bp1s7Zv325v+89//tPq3LmzVbduXSs4ONjq0aOH9fnnn3utd7vd1tmzZy3LsqxvvvnGuu6666wJEyaUOp4BAwZYkyZN8hpfvXr17N8XL15sXXPNNZZlWVZGRoblcrms9PR0e/3LL79shYeHW3Xq1LFGjBhhDRw40Bo6dKhlWZbVu3dvy+12W9WrV7dq1apl3XDDDZZlWdYzzzxjdenSxZo6darVqFEjq27dutaoUaPsMZfm8OHDVr9+/azatWtb11xzjZWUlGS5XC4rNTXVvt4ul8vex/r166327dtbtWvXturWrWt16dLFOnbsmPXCCy9YVapUsapWrWrVqlXLCggIsPbv329ffvHixVZUVJTl7+9vfffdd9ZDDz1kxcfH2+OIjIy0pkyZYvXo0cOqVauWdeONN1opKSn2+uLrdq5z93GhczJlyhSvyx07dswaOXKkFRYWZtWvX9/q06eP9fXXX5c4TlnP4UMPPWRVrVrV8vPzswICAqw+ffpYlmVZBw4csAYOHGg1aNDAatiwoXXfffdZ2dnZXpcbOHCg9dvf/tYeR1l8/vnnltvtto4dO2ZZlmXNnz/fatCggdf4Zs6caTVv3rzEZc+/D19IcnKyVbNmTSs3N9de1rRpU+vPf/6z/XtBQYEVEhJiLVq0yLIsy3r77bet4OBgr/089thjpV6vS41j/PjxVkJCgvXMM89YXbt2vehYz+VyuawZM2ZYnTt3tmrVqmUtWbLEsizLWrNmjdWxY0erTp06VlRUlPXaa6/Zlyl+7P3tb3+zrr/+eisoKMjq2bOn12Px3G3dbnep6843f/58KywszJo5c6YVFhZm1atXzxo2bJj1ww8/2NsU3+fvuusuKzAw0HrppZdK7KegoMDr8bh3717L7XZbmZmZXtsVFhZat956q3XHHXfYy8LCwqw333zT/v3YsWOWy+WyVq1aZS9r0qSJlZiYaP9+5swZq27dutbixYsveR2feuopq3v37hfdZvfu3VatWrXsx2ZAQIC1ceNGa+7cuVZkZKS93ZAhQ+zntzvvvNPrsdymTZtS971u3TrL5XJZK1assFq0aGEFBQVZMTEx1qFDh+xtXnvtNatVq1ZWYGCgFRoaaj344IPW999/73UdunXrZk2aNMkKDQ21brrpJvvcTZ061brzzjutwMBA69VXX7Usy7JWrVplRUdHW0FBQVbLli2tGTNm2PsaN26c13PakCFDrCpVqlj5+fmWZVnWxx9/bAUEBFgFBQUlblfLKnpsu1wua+fOnZZlWda3335r3X///VZoaKjVsGFDa/DgwdbRo0cv67qde/usXr3aatCggfX3v//9grfXc889ZzVp0sQKDg62Hn74YWvAgAHWyJEjLcuyrBUrVtjP7QEBAVatWrUsl8tlJSUlXXB/wJWiAgIjnT17VgsXLlRubq46dOggSRo1apS2bNmitLQ0HTlyRAMHDlRMTIzy8/MlSVWrVtWrr76q7777TllZWWrRooXuvvtuFRQUlNj/P//5T3Xt2lUTJkzQSy+9VOoYevXqpQ8++ECSdOLECW3ZskWBgYHaunWrJGndunWKiYmxtz/3ndW33npL06ZN09KlS3XkyBF16NBBb7/9tr3+vffeU3h4uGbNmqXjx497tTJ89tlnCggIUFZWlj799FMtW7ZMCxcuvOC5Gjx4sE6dOqWMjAxt2bJFycnJJd7lPff3+Ph4jR07Vrm5uTp06JCmT5+uqlWr6sknn9TgwYN133332e+mh4WF2ZdbunSpNm7cqPz8fNWrV6/UsSQmJur5559XXl6e/ud//kd9+/ZVZmZmqeM434XOicvl8rrckCFDlJ6erm3btikrK0tRUVHq2bOn17uOmzZtKvM5fOONNzRp0iR16tRJ+fn5WrNmjQoLC/WrX/1KVapU0d69e/X111/Lsiz17dvXq/qzcuVKdezYUQcPHtSKFSsueN3OlZKSooiICAUFBUmSduzYobZt28rt/r+n65tvvln/+c9/9MMPP5Rpn+dLTEzU/fffr9q1a0uS8vPzlZGRoZtvvtnexuPxqE2bNtq+fbskKSYmRi1atNBbb72lwsJCpaen65133tGAAQMu69gbNmzQmjVr9MILL1zR2OfMmaN58+bp+PHjuvvuu/WPf/xDgwcP1rRp05STk6O3335b06dPV3Jystfl5s6dqw8//FCHDh1SZGSkfvOb31z1fK9Dhw5px44d+uabb7Rz507t2rVLCQkJJcY7depU5eXl6fe///0VH8vlcmnQoEHasGFDqc9Zp0+f1qxZs+R2u3XttddKknJycvTtt9963a5VqlTRTTfdZN+uV6tly5Y6duyYLMtSSkqK8vPz1bFjR3vMpUlJSVFoaKj++te/6vjx45ccy+rVq+3Hc15enp566il7XWhoqFavXq28vDx9+umn+ve//13iNvjXv/6lgIAAZWRkaOPGjfbyOXPm2M9HY8aM0caNGxUbG6unnnpKOTk5WrhwoV566SW9/vrrkoqe8z/66CP78uvWrVOzZs20fv16+/fu3bvL4/GUuA7Hjx9XYmKigoOD1bx5c506dUrdu3dX06ZNlZ6err1798qyLMXHx1/WdSs2ffp0jR07Vu+//7769etX6jbz5s3Ta6+9ppUrV+rIkSNq166dVq9eba/v37+/V6X08ccfV9OmTXXHHXdc8LYBrhQBBEZ55ZVXFBwcrEaNGum1117T/PnzdeuttyonJ0cLFizQrFmz1KhRI7ndbo0ZM0ZBQUF69913JUmdOnXSLbfcIo/Ho5o1a+rFF19UVlaWvv76a69j/O1vf9P999+vJUuW6KGHHrrgWO68805t375dOTk5+sc//qGbb75Zffv2VUpKiiTpww8/1J133mlvf+4L0/nz52vYsGHq2LGjPB6PRo4cqdatW5c4hlVKK1N4eLgSEhLk5+enFi1a6I477tCmTZtKHWN2drbWrVun6dOnKygoSLVr19aLL7540RapatWqKT09XdnZ2fLz81PHjh1VvXr1C24vFb3QeOmll1SnTh1VqVLF68XyuR588EHdcsstcrvdGjZsmNq0aaNFixZddN/nu9jYDx48qDVr1mjmzJmqX7++/P399corr+jkyZP2/UCSPX+hLOewNJs2bdKuXbv0+uuvq1atWgoMDFRiYqK2bdumzZs329u1b99eDz74oDwej/z9/S+533Xr1unZZ5/VX//6V3tZfn6+HRSK1alTx153ub744gulpaVpzJgxXseQVOpxitdVr15dw4cP19ixY+Xv76+oqCh16tRJQ4cOLfOxf/zxRw0fPlxz584t0/kozaOPPmq/wK5WrZr+9Kc/acyYMXY71/XXX69Ro0aVmCv09NNPKzQ0VP7+/poxY4b27NlTLv34M2fOlL+/vxo1aqQ//OEPWrBggdd9dNiwYfabJFd6nYuFh4fr7NmzOnbsmL1szJgxCg4OVo0aNTRt2jQtWrTIPj/Fc7sudruWp4s9Nq90++LnluLHWVxcnNdjdcCAAWrWrJmkovMzYcIE+42hYqGhoXriiSdUpUoVr9tgxIgRat++vaSi22bu3Lm655571K9fP7ndbrVv317jx4/X7NmzJRXNQ8zJydGuXbu0Y8cOBQQEaOTIkfZz/gcffOD1nC9Jv/71r1W3bl21bNlSmZmZWrt2rapXr67Vq1frzJkzeuGFF+Tv76+aNWvqhRde0Nq1a3X48OEyX7czZ85oxIgRSk5O1saNG0vM6zrXwoULNXLkSEVHR8vtduvhhx9Wq1atSt129uzZev311/XBBx+oQYMGF9wncKUIIDDK448/rpycHB0+fFibN2/WkCFDJBX16EtSx44dFRwcrODgYNWpU0fZ2dn2hN6dO3eqb9++CgsLU+3atdWsWTO5XC77yV4q+oP4hz/8QQMGDLjk5NimTZuqWbNm+uCDD+w/PL169dLatWu1Z88eZWdnX3AC57fffqumTZuW2F9ZhIaGev1es2bNC34q07fffiuXy+U1+f1Sx1m9erXS09PVrl07RUVF6ZlnninTO8VlmWB//jZNmzYtMbH2ahRf3+I/2pLk5+eniIgIr774yzmHpdm/f7+Cg4MVGBhoLyu+z517nLLeppL07rvvKjY2VklJSerVq5e9PDAw0OsFpyTl5uba6y7X66+/rptvvlnR0dFex5BU6nGK17355puaMGGC3nnnHZ05c0bZ2dk6evSoBg0aVOZjjx8/Xr/61a906623Xva4i51/H/rmm280c+ZMr8f9Sy+9pO++++6Cl6tVq5bq1atX5vtenz597En8v/rVr+zlderUUa1atezfmzZtqp9++snr2JfzwROXkpmZKY/HY1fHpKJqVvFzYpcuXbzeoS/+dLuL3a4mOPcF8PmP1WXLlqlz584KCQlR7dq1NXToUK/ndOnCt8H5y/fv369rrrnGa1nz5s3tx3TNmjXVqVOnEs/5xZWfTZs2lQgga9as0ffff68DBw7o/ffftwPP3r17deDAAft+GxwcrDZt2qh69er28cpy3b7++mstXLhQTz31lBo1anTR83jgwAFFRERc8tysWLFCTz75pN5///0S5wMoLwQQOELDhg3lcrm0c+dO5eTkKCcnR7m5ufrhhx80YcIESdLAgQPVvHlz/fvf/9axY8e0b98+WZbl9S6cy+VSWlqaPvzwwzK1S/Ts2VMffPCBPvzwQ8XExOj222/X9u3btXz5cnXo0MHr05LObUcICwsr8ZG85/9+oSrC5ShukTp33/v27bvoZVq1aqWkpCQdPHhQy5cv1+zZs/XGG29cckxlGW9p17l4jAEBAfrxxx+91mdnZ1/WMZo0aSKp6JOEip09e1ZZWVkl/vBejSZNmig3N1d5eXn2suL73LnHKettmJSUpPj4eC1btkx9+/b1WlfcBnVuCNy0aZOaNWvm9eK3LH744QclJSXpkUce8VoeGBioyMhIr+rN2bNntX37djuobN26VbfffrsdHho0aKCHH37Yq4XjUlJSUrRgwQLVr19f9evX18svv6yNGzcqJCSkzJ88df45bdiwoZ544gmvx31eXp7XZG3J+773ww8/6OjRo14thBfz3nvv2a0pa9assZfn5uZ6vRjet2+fqlSp4vWCuTwex8WSk5PVrVs3ValSxV5W/PxVt25dzZ8/X0uXLtX7778vqSgUh4WFed2uP/30k93WV5nK47xkZWUpLi5O48eP14EDB3Ts2DH7uaosxzp/eZMmTbyeO6SioBAeHm7/3rNnT6WkpOiDDz5QTEyMWrdurZMnT2r27NkKCwtTixYtvC5/oSpPw4YNdc0119j32+L77o8//qj27duX+brdeOONWrVqlYYPH66lS5eWfqJ+1rhxY6+WV0klfv/nP/+p4cOHa8WKFZV+H4GzEUDgCOHh4brnnnv0yCOP2O8eHT9+XGvXrrXfjczLy1NgYKACAgKUk5OjRx99tNQe5cjISH388cf6+OOPFR8fX2q/dbE777xTb7/9tr7//nu1bdtWNWrUUIcOHfTKK6+UeCfs3D9EDz74oObNm6fPPvtMZ8+e1dy5c7Vjxw6v7Rs2bFiiPexyhYaG6o477tCECRN07Ngx5ebm6n//938v2Jv9008/af78+Tp69KikolDg5+dnv+Bp2LCh0tPTr7h3fsGCBfZ1nj9/vj7//HMNHjxYUlG70q5du/TJJ5+osLBQy5YtK/EJZ5c6Jw0bNlSfPn00fvx4HT58WCdPntSECRNUrVo19enT54rGXJoOHTrohhtu0NixY3X8+HHl5eXpkUceUXR0tP0OZ1n95S9/0e9+9zu9++676tmzZ4n1/fv3l8fj0ZQpU3Tq1Cnt2rVLr776qsaOHWtvU1hYqNOnT+v06dOSpFOnTun06dMlXvwsWLBAVatW1X333VfiOGPGjNH06dP15Zdf6uTJk3rqqadUrVo13XPPPZKkrl27Ki0tzW5bOnLkiObOnet1fS81js8++0xffPGFduzYoR07dmj06NGKjo7Wjh07rrhSMG7cOP35z3/W+vXrdfbsWZ09e1Zffvml0tLSvLZ77rnndODAAZ04cULjx49XixYt1LlzZ0lFj83Tp0/r1KlT9v9Pnz5dpvv5+PHjdeLECWVnZ+uZZ57RAw88cNWfpHXu7WZZlr744gvFx8friy++0PTp0y94uZCQEP3+97/XhAkT7H2MGTNGL7/8snbv3q0TJ05o0qRJqlmzpu6+++4L7qegoECnTp1SQUGBfZte6NOjrlR5PL8dP35clmWpXr16qlKlivbs2aNp06Zd8f6GDx+uVatWadWqVSosLNTWrVs1Y8YMjRo1yt7mzjvvVFpamjZt2mRXuHv16qUXX3zRq3J5Kffee69OnDihqVOn2iH2u+++07Jlyy77ut1111169913NXbsWK/2zfPFx8dr7ty52rZtm/1354svvrDX79ixQ/3799ecOXPK/PHLwJUigMAYl/qj/tZbb6ldu3bq1auXgoKCdN1112nu3Ln2H+I33nhDS5cuVUBAgDp37uzVSnG+kJAQbdiwQd9++63uueeeC35kZY8ePXTixAmvPzzFE9/PDyDnjn/w4MGaMGGCYmNjVb9+fW3atEn9+/f32v7pp5/WqlWrVKdOnav6eMtFixapatWqioyMVPv27XX//fdfdPvly5frhhtuUEBAgLp37+713R/FXyxYr149BQcHl/i+iotxuVwaPXq0Jk2apNq1a+vVV1/VypUr7Tal2267TZMmTVL//v3t83/vvfd67aMs52ThwoWKjIxUdHS0wsPDtXv3bq1bt+6qPkL3fG63W++++65Onz6t5s2b69prr1VhYaFWrVp12S8+f//73+vHH39U79697YAcGBioTz75RFJRu1BKSopSU1NVt25dxcTEaOTIkRo3bpzXda5evbp69+5tX6ZGjRolXoTPnj1bQ4cOVbVq1UqM47HHHtNDDz2knj17qn79+vr000+1du1a1ahRQ5IUGxurKVOmaNiwYfb38Pj7+3vN4bnUOEJCQhQaGmr/CwwMVNWqVe15W5dS2rm9++67tXDhQj399NMKCQlRgwYNNHLkSH3//fde2w0fPly9evVSo0aNtHfvXr3zzjv2MTds2KDq1avr+uuvl8vl0g033KAaNWpccn5So0aNdOONNyoqKkqtW7dWq1atNGPGjIuOd9++fQoICNBnn312we1cLpdatWqloKAgBQcHKy4uTnXr1tXOnTt10003XXT/xe+Yv/nmm5KkiRMnasiQIerRo4dCQkK0detWpaSk2HMhShvP0KFDVaNGDb388stKS0tT9erVvaptCxYsUHBwcIkxX45nnnlGy5cvV506dewQW9p+L6ZVq1Z67rnndP/99ysoKEgjRowo8/cUlTbeTp06acmSJZo6daqCg4M1aNAgPfbYY14Vw3bt2ikgIEBt27a1n1OKn/PP/dCRCx2jWGBgoD799FOlp6erVatWql27trp27Wo/7i/3unXu3Fn/+Mc/9Nxzz+n555+XVBS6z61iDB06VGPHjtXdd9+tkJAQbdmyRX369LHvC8uXL1d+fr5GjBjh9VxUHIqA8uSyLnfWGAAAhsjMzFSzZs30zTffeM0NulpvvvmmJk+e7DXnBzDNjTfeqIceekjjx4+v7KHgvwwVEACAo/E+G1BkyZIlOn36tE6ePKlXXnlFe/fuLVFpBioCAaSMxo0bp6ZNm8rtdpeY3ChJ69evl5+fn1577TV72cmTJzVo0CC1aNFCLVu2LPP3AADAf5v9+/fbLR/n/+vSpctV7fuX/HZzwCSzZ89Ww4YN1bBhQy1btkzvvvtuuX5AB1BWtGCV0ccff6xmzZqpS5cuWrlypdd3NuTn56tXr15q2LCh7rjjDvvTk5599lnt27dP8+bNU0ZGhjp27KivvvrK/gx/AAAA4L8NFZAy6tKli0JDQ0st5Y8dO1aTJ08uMXluyZIlGj16tKSiT1bq3r2717ddAwAAAP9tCCBXacWKFfJ4PPr1r39dYt353z1w/pehAQAAAP9t/Cp7ACb77rvv9Nxzzyk1NbVc9nf06FGlpKQoMjJS1atXL5d9AgAAoPycPHlSGRkZiomJUb169Sp7OEYigFyFrVu36tChQ2rTpo0sy9LRo0f1zjvv6MiRI3r22WcVHh6uzMxM+1txi++sF5KSkqIhQ4ZU1PABAABwhRYtWmR/mS4uDwHkKvTp00cHDx60fx86dKjatm1rT0KPjY3V7Nmz1aFDB+3bt0+pqalKTEy84P6Kvwl40aJFuu66637RsZskISHB68u9wDkpDeekJM6JN85HSZyTkjgnJXFOvO3evVtDhgyxX7fh8hFAymj06NFas2aNvvvuO8XExCggIEB79uzx2ub8j3p8/PHHNWzYMDVv3lx+fn6aNWvWRb/ltbjt6rrrrlN0dHT5XwlDBQUFcT7OwzkpiXNSEufEG+ejJM5JSZyTkjgnpaNd/soRQMpo9uzZl9xm3rx5Xr/XqFFDixcv/qWGBAAAABiHT8ECAAAAUGEIIAAAAAAqDAEEPi8uLq6yh+BzOCclcU5K4px443yUxDkpiXNSEucE5c1llfbV3qgU27ZtU7t27bR161YmewEAAPggXq9dPSogAAAAACoMAQQAAABAhSGAAAAAAKgwBBAAAAAAFYYAAgAAAKDCEEAAAAAAVBgCCAAAAIAKQwABAAAAUGEIID7q2DHp0Uel3bsreyQAAABA+SGA+KgTJ6QZM6R9+yp7JAAAAED5IYD4KI+n6GdBQeWOAwAAAChPBBAf5edX9PPs2codBwAAAFCeCCA+igoIAAAAnIgA4qOKAwgVEAAAADgJAcRH0YIFAAAAJyKA+ChasAAAAOBEBBAfRQUEAAAATkQA8VHun28ZKiAAAABwEgKID/N4qIAAAADAWQggPszPjwACAAAAZyGA+DCPhxbEdUwmAAAgAElEQVQsAAAAOAsBxIdRAQEAAIDTEEB8GBUQAAAAOA0BxIcxCR0AAABOQwDxYbRgAQAAwGkIID6MFiwAAAA4DQHEh1EBAQAAgNMQQHwYFRAAAAA4DQHEhzEJHQAAAE5DAPFhtGABAADAaQggPowWLAAAADgNAcSHUQEBAACA0xBAfBgVEAAAADgNAcSHMQkdAAAATkMA8WG0YAEAAMBpCCA+jBYsAAAAOA0BxIdRAQEAAIDTEEB8GBUQAAAAOA0BxIcxCR0AAABOQwDxYbRgAQAAwGkIID6MFiwAAAA4DQHEh1EBAQAAgNMQQHwYFRAAAAA4DQHEhzEJHQAAAE5DAPFhtGABAADAaQggPowWLAAAADgNAcSHUQEBAACA0xBAfBgVEAAAADgNAcSHMQkdAAAATkMA8WG0YAEAAMBpCCA+jBYsAAAAOA0BxIdRAQEAAIDTEEB8GBUQAAAAOA0BxIcxCR0AAABOQwDxYbRgAQAAwGkIID6MFiwAAAA4DQGkjMaNG6emTZvK7XZr586d9vJhw4bp2muvVdu2bdW1a1dt2bLFXnfy5EkNGjRILVq0UMuWLbVixYrLOiYVEAAAADgNAaSMYmNj9cknnygyMtJref/+/bV7925t375dTzzxhGJjY+1106dPl7+/v7755hutXbtWY8aMUW5ubpmPSQUEAAAATkMAKaMuXbooNDRUlmV5Lf/1r38tt7voNN5yyy3Kzs5WYWGhJGnJkiUaPXq0JCkyMlLdu3fX22+/XeZjMgkdAAAATkMAKUd/+tOf1KdPHzuQZGVlKSIiwl4fERGhrKysMu/Pz48KCAAAAJzFr7IH4BSLFi3S8uXLtWHDhnLbJxUQAAAAOA0BpBwsWbJEzz77rNavX6/69evbyyMiIpSZmakGDRpIkjIyMhQTE3PJ/SUkJCgoKEgZGdKZM1LfvlJcXJzi4uJ+qasAAACA8yQnJys5OdlrWV5eXiWNxjkIIFdp6dKlmjx5sj766CM1btzYa929996r2bNnq0OHDtq3b59SU1OVmJh4yX3OmDFD0dHRmjNHGjVKWr36lxo9AAAALqS0N4C3bdumdu3aVdKInIE5IGU0evRoNWnSRAcOHFBMTIyioqIkSUOGDNHp06d19913q23btoqOjrY/6erxxx/XiRMn1Lx5c/Xu3VuzZs1ScHBwmY/p8RT9/HlOOwAAAGA8KiBlNHv27FKXnzlz5oKXqVGjhhYvXnzFx/T7+dYpKJCqVr3i3QAAAAA+gwqIDyuugDARHQAAAE5BAPFhxRUQAggAAACcggDiw4orIHwXCAAAAJyCAOLDaMECAACA0xBAfNi5k9ABAAAAJyCA+DAqIAAAAHAaAogPYxI6AAAAnIYA4sOYhA4AAACnIYD4MFqwAAAA4DQEEB/GJHQAAAA4DQHEh1EBAQAAgNMQQHwYk9ABAADgNAQQH8YkdAAAADgNAcSH0YIFAAAApyGA+DAmoQMAAMBpCCA+jAoIAAAAnIYA4sOYhA4AAACnIYD4MCahAwAAwGkIID6MCggAAACchgDiw6iAAAAAwGkIID6MSegAAABwGgKID6MFCwAAAE5DAPFhtGABAADAaQggPowKCAAAAJyGAOLDqIAAAADAaQggPoxJ6AAAAHAaAogPowULAAAATkMA8WHun28dWrAAAADgFAQQH+ZyFbVhUQEBAACAUxBAfJzHQwUEAAAAzkEA8XFUQAAAAOAkBBAf5+dHAAEAAIBzEEB8HC1YAAAAcBICiI+jAgIAAAAnIYD4OCogAAAAcBICiI9jEjoAAACchADi42jBAgAAgJMQQHwcLVgAAABwEgKIj6MCAgAAACchgPg4KiAAAABwEgKIj2MSOgAAAJyEAOLjaMECAACAkxBAfBwtWAAAAHASAoiPowICAAAAJyGA+DgqIAAAAHASAoiPYxI6AAAAnIQA4uNowQIAAICTEEB8HC1YAAAAcBICiI+jAgIAAAAnIYD4OCogAAAAcBICiI9jEjoAAACchADi42jBAgAAgJMQQHwcLVgAAABwEgKIj6MCAgAAACchgPg4KiAAAABwEgKIj2MSOgAAAJyEAOLjaMECAACAkxBAfBwtWAAAAHASAoiPowICAAAAJyGAlNG4cePUtGlTud1u7dy5015+5MgR9e7dW1FRUWrdurXS0tLsdSdPntSgQYPUokULtWzZUitWrLjs41IBAQAAgJMQQMooNjZWn3zyiSIjI72WP/HEE+rUqZP27NmjefPmadCgQTr7c8li+vTp8vf31zfffKO1a9dqzJgxys3NvazjMgkdAAAATkIAKaMuXbooNDRUlmV5LV+6dKlGjx4tSWrfvr0aN26s1NRUSdKSJUvsdZGRkerevbvefvvtyzouLVgAAABwEgLIVcjJyVFBQYFCQkLsZREREcrKypIkZWVlKSIiotR1ZUULFgAAAJyEAOLjqIAAAADASfwqewAmCw4Olp+fnw4fPmxXQTIyMhQeHi6pqOKRmZmpBg0a2OtiYmIuud+EhAQFBQVJkr76Sjp0SEpOjlNcXNwvdE0AAABwvuTkZCUnJ3sty8vLq6TROAcB5CrFxsYqMTFRU6ZM0ebNm5Wdna1u3bpJku69917Nnj1bHTp00L59+5SamqrExMRL7nPGjBmKjo6WJE2dKv31rxLZAwAAoGLFxZV8A3jbtm1q165dJY3IGWjBKqPRo0erSZMmOnDggGJiYhQVFSVJmjZtmv71r38pKipKw4YNU1JSkjwejyTp8ccf14kTJ9S8eXP17t1bs2bNUnBw8GUdlxYsAAAAOAkVkDKaPXt2qctDQkKUkpJS6roaNWpo8eLFV3VcJqEDAADASaiA+DgqIAAAAHASAoiPowICAAAAJyGA+Di+CR0AAABOQgDxcbRgAQAAwEkIID6OFiwAAAA4CQHEx/n5SZYlFRZW9kgAAACAq0cA8XE/f6UIbVgAAABwBAKIjyOAAAAAwEkIID7O7+eviiSAAAAAwAkIID6uuALCRHQAAAA4AQHEx1EBAQAAgJMQQHwcFRAAAAA4CQHExzEJHQAAAE5CAPFxtGABAADASQggPo4WLAAAADgJAcTHUQEBAACAkxBAfBwVEAAAADgJAcTHMQkdAAAATkIA8XG0YAEAAMBJCCA+jhYsAAAAOAkBxMdRAQEAAICTEEB8HBUQAAAAOAkBxMcxCR0AAABOQgDxcbRgAQAAwEkIID6OFiwAAAA4CQHEx1EBAQAAgJMQQHwcFRAAAAA4CQHExzEJHQAAAE5CAPFxxS1YVEAAAADgBAQQH0cFBAAAAE5CAPFxTEIHAACAkxBAfByT0AEAAOAkBBAfRwsWAAAAnIQA4uOYhA4AAAAnIYD4OCogAAAAcBICiI9zuSS3mwACAAAAZyCAGMDjoQULAAAAzkAAMYDHQwUEAAAAzkAAMYCfHxUQAAAAOAMBxABUQAAAAOAUBBAD+PkRQAAAAOAMBBADMAkdAAAATkEAMQAtWAAAAHAKAogBmIQOAAAApyCAGIAKCAAAAJyCAGIAJqEDAADAKQggBmASOgAAAJyCAGIAKiAAAABwCgKIAaiAAAAAwCkIIAZgEjoAAACcggBiAFqwAAAA4BQEEAPQggUAAACnIIAYgAoIAAAAnIIAYgAqIAAAAHAKAogBmIQOAAAApyCAGIAWLAAAADgFAcQAtGABAADAKQggBqACAgAAAKcggBiACggAAACcggBiACahAwAAwCkIIOXkvffeU7t27dS2bVu1bt1aCxYskCQdOXJEvXv3VlRUlFq3bq20tLTL3jctWAAAAHAKv8oegFPEx8drw4YNatWqlTIzM9WyZUsNGDBAEydOVKdOnfT+++9ry5Yt6tevnzIyMuTxeMq8b1qwAAAA4BQEkHLidruVm5srScrLy1O9evVUtWpVLVu2TOnp6ZKk9u3bq3HjxkpNTVWPHj3KvG8qIAAAAHAKAkg5Wbx4sfr166eaNWvq2LFj+vvf/67jx4+roKBAISEh9nYRERHKysq6rH1TAQEAAIBTMAekHJw9e1bPPfecVq5cqYyMDK1bt05DhgxRQUGBLMu66v0zCR0AAABOQQWkHHz++ec6ePCgbr31VklFrVZhYWHauXOnqlSposOHD9tVkIyMDIWHh190fwkJCQoKCrJ/37lTcrniJMX9YtcBAAAA3pKTk5WcnOy1LC8vr5JG4xwEkHLQpEkTHTx4UF999ZVatmypvXv36j//+Y9atmyp2NhYJSYmasqUKdq8ebOys7PVrVu3i+5vxowZio6Otn8fO1a6gg/PAgAAwFWIi4tTXJz3G8Dbtm1Tu3btKmlEzkAAKQchISGaM2eOBg4cKI/Ho8LCQs2aNUthYWGaNm2a4uPjFRUVpWrVqikpKemyPgFLYhI6AAAAnIMAUk7uu+8+3XfffSWWh4SEKCUl5ar2zSR0AAAAOAWT0A3AJHQAAAA4BQHEALRgAQAAwCkIIAagBQsAAABOQQAxABUQAAAAOAUBxABUQAAAAOAUBBADMAkdAAAATkEAMQAtWAAAAHAKAogBaMECAACAUxBADEAFBAAAAE5BADEAFRAAAAA4BQHEAExCBwAAgFMQQAzg5ycVFkqWVdkjAQAAAK4OAcQAHk/RT6ogAAAAMB0BxAB+fkU/CSAAAAAwHQHEAMUVECaiAwAAwHQEEAPQggUAAACnIIAYgBYsAAAAOAUBxAC0YAEAAMApCCAGoAICAAAApyCAGIAKCAAAAJyCAGIAJqEDAADAKQggBqAFCwAAAE5BADEALVgAAABwCgKIAaiAAAAAwCkIIAagAgIAAACnIIAYgEnoAAAAcAoCiAFowQIAAIBTEEAMQAsWAAAAnIIAYgAqIAAAAHAKAogBqIAAAADAKQggBmASOgAAAJyCAGIAWrAAAADgFAQQA9CCBQAAAKcggBiACggAAACcggBiACogAAAAcAoCiAGYhA4AAACnIIAYgBYsAAAAOAUBxAC0YAEAAMApCCAGoAICAAAApyCAGIAKCAAAAJyCAGIAJqEDAADAKQggBnC7JZeLAAIAAADzEUAM4fHQggUAAADzEUAM4edHBQQAAADmI4AYggoIAAAAnIAAYgiPhwoIAAAAzEcAMQQtWAAAAHACAoghaMECAACAExBADEEFBAAAAE5AADEEFRAAAAA4AQHEEExCBwAAgBMQQAxBCxYAAACcgABiCFqwAAAA4AQEEENQAQEAAIATEEAMQQUEAAAATkAAMQST0AEAAOAEBBBD0IIFAAAAJyCAGIIWLAAAADgBAcQQVEAAAADgBASQcnLmzBn97ne/U1RUlG666SY98MADkqQjR46od+/eioqKUuvWrZWWlnZF+6cCAgAAACfwq+wBOMXEiRPldru1Z88eSdLhw4clSU888YQ6deqk999/X1u2bFG/fv2UkZEhj8dzWftnEjoAAACcgABSDk6cOKF58+bpwIED9rKQkBBJ0tKlS5Weni5Jat++vRo3bqzU1FT16NHjso5BCxYAAACcgBascpCenq7g4GA9//zzuvnmm9WtWzetX79eOTk5KigosMOIJEVERCgrK+uyj0ELFgAAAJyAAFIOCgoKlJmZqRtuuEGbN2/WzJkzdf/996ugoECWZZXLMaiAAAAAwAlowSoH4eHh8ng8GjRokCSpTZs2ioyM1K5du1SlShUdPnzYroJkZGQoPDz8ovtLSEhQUFCQ17KDB+PUoEHcL3MFAAAAUEJycrKSk5O9luXl5VXSaJyDAFIO6tatqzvuuENr165V7969tW/fPmVkZOj6669XbGysEhMTNWXKFG3evFnZ2dnq1q3bRfc3Y8YMRUdHey0bMED68cdf8loAAADgXHFxcYqL834DeNu2bWrXrl0ljcgZCCDlJDExUcOHD9fEiRPl8Xg0Z84cNWrUSNOmTVN8fLyioqJUrVo1JSUlXfYnYElFLVjMAQEAAIDpCCDlpGnTplq/fn2J5SEhIUpJSbnq/fMxvAAAAHACJqEbgknoAAAAcAICiCH4GF4AAAA4AQHEELRgAQAAwAkIIIZgEjoAAACcgABiCCogAAAAcAICiCGYhA4AAAAnIIAYgknoAAAAcAICiCGogAAAAMAJCCCGoAICAAAAJyCAGIJJ6AAAAHACAoghaMECAACAExBADEELFgAAAJyAAGIIKiAAAABwAgKIIaiAAAAAwAkIIIZgEjoAAACcgABiCFqwAAAA4AQEEEPQggUAAAAnIIAYggoIAAAAnIAAYojiOSCWVdkjAQAAAK4cAcQQHk/Rz8LCyh0HAAAAcDUIIIbw8yv6SRsWAAAATEYAMURxBYSJ6AAAADAZAcQQVEAAAADgBAQQQ1ABAQAAgBMQQAxRHECogAAAAMBkBBBD0IIFAAAAJyCAGIIWLAAAADgBAcQQVEAAAADgBAQQQ1ABAQAAgBMQQAzBJHQAAAA4AQHEELRgAQAAwAkIIIagBQsAAABOQAAxBBUQAAAAOAEBxBBUQAAAAOAEBBBDMAkdAAAATkAAMQQtWAAAAHACAoghaMECAACAExBADEEFBAAAAE5AADEEFRAAAAA4AQHEEExCBwAAgBMQQAxBCxYAAACcgABiCFqwAAAA4AQEEENQAQEAAIATEEAMQQUEAAAATkAAMQST0AEAAOAEBBBD0IIFAAAAJyCAGIIWLAAAADgBAcQQVEAAAADgBAQQQ7h/vqWogAAAAMBkBBCDeDxUQAAAAGA2AohB/PwIIAAAADAbAcQgHg8tWAAAADAbAcQgVEAAAABgOgKIQaiAAAAAwHQEEIMwCR0AAACmI4AYhBYsAAAAmI4AYhBasAAAAGA6AohBqIAAAADAdAQQg1ABAQAAgOkIIAZhEjoAAABMRwApZ2+88YbcbrdWr14tSTpy5Ih69+6tqKgotW7dWmlpaVe8b1qwAAAAYDoCSDnKzMzU3Llz1alTJ3vZE088oU6dOmnPnj2aN2+eBg0apLNXmCJowQIAAIDpCCDlxLIsjRgxQn/5y19UtWpVe/nSpUs1evRoSVL79u3VuHFjpaamXtExqIAAAADAdASQcvLHP/5RXbt2Vdu2be1lOTk5KigoUEhIiL0sIiJCWVlZV3QMKiAAAAAwnV9lD8AJvvzyS61YseKq5neUBZPQAQAAYDoCSDlIS0tTZmamWrRoIcuydOjQIT388MN65pln5Ofnp8OHD9tVkIyMDIWHh190fwkJCQoKCvJaFhcXJz+/OAIIAABABUlOTlZycrLXsry8vEoajXO4LMuyKnsQTtO9e3c9+uij+s1vfqNhw4YpIiJCU6ZM0ebNm9W/f39lZGTI4/GUuNy2bdvUrl07bd26VdHR0SXW33abFBEhLVxYEdcCAAAA57vU6zVcGhWQX4DL5VJxrps2bZri4+MVFRWlatWqKSkpqdTwURZMQgcAAIDpCCC/gPXr19v/DwkJUUpKSrnsl0noAAAAMB2fgmUQJqEDAADAdAQQg9CCBQAAANMRQAxCCxYAAABMRwAxCBUQAAAAmI4AYhAqIAAAADAdAcQgTEIHAACA6QggBqEFCwAAAKYjgBiEFiwAAACYjgBiECogAAAAMB0BxCBUQAAAAGA6AohBmIQOAAAA0xFADEILFgAAAExHADEILVgAAAAwHQHEIFRAAAAAYDoCiEGogAAAAMB0BBCDMAkdAAAApiOAGIQWLAAAAJiOAGIQWrAAAABgOgKIQaiAAAAAwHQEEINQAQEAAIDpCCAGYRI6AAAATEcAMQgtWAAAADAdAcQgtGABAADAdAQQg1ABAQAAgOkIIAahAgIAAADTEUAM4vEU/SwsrNxxAAAAAFeKAGIQP7+in7RhAQAAwFQEEIMUV0BowwIAAICpCCAGoQICAAAA0xFADEIFBAAAAKYjgBikOIBQAQEAAICpCCAGoQULAAAApiOAGIQWLAAAAJiOAGIQKiAAAAAwHQHEIFRAAAAAYDoCiEGogAAAAMB0BBCDUAEBAACA6QggBuFjeAEAAGA6AohBaMECAACA6QggBqEFCwAAAKYjgBiECggAAABMRwAxCBUQAAAAmI4AYhAmoQMAAMB0BBCD0IIFAAAA0xFADEILFgAAAExHADEIFRAAAACYjgBiECogAAAAMB0BxCBMQgcAAIDpCCAGoQULAAAApiOAGIQWLAAAAJiOAGIQKiAAAAAwHQHEIFRAAAAAYDoCiEGYhA4AAADTEUAMQgsWAAAATEcAMYj751uLFiwAAACYigBiEJerqA2LCggAAABMRQAxjMdDBQQAAADmIoAYhgoIAAAATEYAMYyfHwEEAAAA5iKAlIPTp0+rX79+atmypdq2bauYmBilp6dLko4cOaLevXsrKipKrVu3Vlpa2lUdixYsAAAAmIwAUk5GjRqlr776Stu3b1ffvn01YsQISdLEiRPVqVMn7dmzR/PmzdOgQYN09ipKGFRAAAAAYDICSDmoVq2a7rrrLvv3W265RZmZmZKkZcuWafTo0ZKk9u3bq3HjxkpNTb3iY1EBAQAAgMkIIL+AmTNn6p577lFOTo4KCgoUEhJir4uIiFBWVtYV75tJ6AAAADCZX2UPwGleeOEFpaena86cOTpx4kS5758WLAAAAJiMAFKOpk+frpUrV+qjjz6Sv7+//P395efnp8OHD9tVkIyMDIWHh190PwkJCQoKCvJaFhcXp7i4OFqwAAAAKkhycrKSk5O9luXl5VXSaJyDAFJO/vjHP2rx4sX66KOPFBAQYC+PjY1VYmKipkyZos2bNys7O1vdunW76L5mzJih6OjoUtdRAQEAAKgYxW8An2vbtm1q165dJY3IGQgg5eDAgQN67LHHdM0116h79+6yLEv+/v769NNPNW3aNMXHxysqKkrVqlVTUlKSPB7PFR+LCggAAABMRgApB40bN1ZhYWGp60JCQpSSklJux2ISOgAAAEzGp2AZhhYsAAAAmIwAYhhasAAAAGAyAohhqIAAAADAZAQQw1ABAQAAgMkIIIZhEjoAAABMRgAxDC1YAAAAMBkBxDC0YAEAAMBkBBDDUAEBAACAyQgghqECAgAAAJMRQAzDJHQAAACYjABiGFqwAAAAYDICiGFowQIAAIDJCCCGoQICAAAAkxFADEMFBAAAACYjgBiGSegAAAAwGQHEMLRgAQAAwGQEEMPQggUAAACTEUAMQwUEAAAAJiOAGIYKCAAAAExGADEMk9ABAABgMgKIYWjBAgAAgMkIIIahBQsAAAAmI4AYhgoIAAAATEYAMQwVEAAAAJiMAGIYJqEDAADAZAQQw9CCBQAAAJMRQAxDCxYAAABMRgAxDBUQAAAAmIwAYhgqIAAAADAZAcQwTEIHAACAyQgghqEFCwAAACYjgBiGFiwAAACYjABiGD8/ybKkwsLKHgkAAABw+QgghvF4in7ShgUAAAATEUAMQwABAACAyQgghvHzK/pJAAEAAICJCCCGKa6AMBEdAAAAJiKAGIYKCAAAAExGADEMFRAAAACYjABiGCahAwAAwGQEEMPQggUAAACTEUAMQwsWAAAATEYAMQwVEAAAAJiMAGIYKiAAAAAwGQHEMExCBwAAgMkIIIahBQsAAAAmI4AYhhYsAAAAmIwAYhgqIAAAADAZAcQwVEAAAABgMgKIYZiEDgAAAJMRQAxDCxYAAABMRgAxDC1YAAAAMBkBxDBUQAAAAGAyAohhqIAAAADAZAQQw5g0Cf3UKalTJ+nppyt7JAAAAPAVfpU9AFwek1qwXnlF+uwzaeNGqW5dady4yh4RAAAAKhsBxDCmtGBlZEgvvCA9/rhkWVJCgtSwoXTffZU9MgAAAFQmAohhTKmAJCQUVT0mT5Zq1JAOHpQeeECqX1/q0aOyRwcAAIDKQgAxjAkVkLVrpZUrpcWLpVq1ipb9v/8nHT4s3XOPtGGD1KZN5Y4RAAAAlYNJ6Ibx9Unop09Lv/tdUZVj4MD/W161qrR8udSihdS7d1GLVlklJyeX+zhNxzkpiXNSEufEG+ejJM5JSZyTkjgnKG8EkAqwd+9e3Xrrrbr22mvVsWNH7d69+4r3dbEWrB9/lDIzL+9ffv4VD6VUr75aFC7+/GfJ5fJeFxAgvfdeUUvWXXdJR4+WbZ/JyckqLJTOnLm8sRw+XPp13r+/aF5KWRUU+F7FqTL/GOTklH5es7IqNxjzB7Ikzom3c8+HLz6uKwP3kZI4JyX9N56TL7+s7BE4GwGkAowaNUqjR4/W119/rQkTJujBBx+84n2V1oJ1+rQ0/f+3d/dBVZV5HMC/oLg2m1qYqAmXi3IBl5d4V2BRKZPtRSbXmdzRLLFRpsxqd2abdtJdU7IcrYVKt20z33BHDEdTs3SNIsZZE3DxLSsFBSoDhMkhRV0u3/3jrMdIIlE5Fz3fzwx/cJ5z7nnOl/tyfjznOXcJMGQI4HR27mfwYOD5543i5WpVVwPZ2cbdrn71q/bXGTgQ2L7dOImNiQHWrAFaWzt+3JMngfh4oG9f4E9/Ak6d6nj9qipgyhRjX+0ds8MBJCcD//53x4/jdgP/+Afg7w8EBABvvdV9R56sUFcHPP444OfXfq6BgcaldR984NFuinTI7Qbeftt4H/D3B958U4WIiFx05Ajw298CERHGnTyla6gA6WL19fUoKyvDlClTAAATJ05ETU0NKisrr+jxvLwAb2/jQ5QE1q8Hhg8Hnn3WOOnesQP4178u/2fWLONuVS6X8aF8NSfYv/89cMstwF/+0vF6wcHGrXkTE42J6YmJQFHRpet9/jmQkWEUCr16GZd25eYafV22DPjvf9uuf+qUUaCEhgKFhcDSpe0f8/r1xneUJCcbl4m196fYvt04mZ45E7jrLiAtDZgxwyiaduy48oyuR83NwEsvGX+3f/7TeL60l+u77wK+vsYldunpwIEDnu65SFv19UBsLPDoo8Do0cDddwNZWcZr/f33OzcyKmf8NjQAAAz5SURBVCI3loaGi/9ALS0F8vKAhARP9+oGRulSZWVlDAsLa7MsMTGRH330UbvrAmBZWVmHj+njQ06fTiYlkQB5//3kZ59deR+PHSN/9zvjsaKiyB07Ov8Y27cb269d27ntPvmETEgwts3IID//nKyrIx9/nOzRg3Q6ybi48WxtNdavqSGnTSO9vMiwMHLzZvL8eXLpUvK228ibbiL//Geyqanj/brd5MqV5JAhRp5/+APZ2Eju30+OG2f0JzWV3LPn4jaffkr++tdG229+Qx440LljvZbGjx/f5ftwu8m8PNLhIHv2JJ98kjx5suNtWlvJjRtJl4v09iYffZT85psu7ypJazK53igTw8GD5D33kMB4JieTu3dfbCspIUeNMl7Xd99Nlpd7rp+eoOfIpZTJpW7kTM6eJZcsIW+5hezTh1y4kDxzpuNtLvd8TX6a7oLVjTQ3NwPAz84R8fY2RitCQoC//c0YQWhuBvbuvfJ9//GPxryMv/4VGDcOiIw0RjMu1+HDxn8WQ0M7149f/tIYzdixw5g3Eh5ujHb06AE88YTxvSHPPnsK//nPxQedPdv4z2VOjjFC0qcP0NQEjB9/8RKhL7/8+X1HRgL5+cDatUYf/v534MwZ41K2xYuNUQ8vr4vH07Onsc+PPjJGYqKijOx79br8471WDh06hVGjruIPfhlOnACOHjVyyMkxLrG6MN+jIw6H8Z+jggLj8pa1a41L6H48J+hasyKT640yMeaO7dkD3H47MHz4Kbz66t42r2tvb+CVV4xR2NxcYzQkMRH4xS8822+r6DlyKWVyqRs5k6NHgdpa47KrrCxjJP/npupeOE+7cN4mnedFatC5K9XX18PlcqGxsRHe3sYVb4MHD8auXbswdOjQNuuuXbsWDz30kCe6KSIiIiKdkJeXZ15iL52jEZAuNmDAAMTGxmLNmjV45JFHUFBQgICAgEuKDwBIT09HXl4enE4nbrrpJg/0VkREREQ60tzcjOPHjyM9Pd3TXbluaQTEAl9++SWmTZuGhoYG9OvXDytWrEB4eLinuyUiIiIiYjkVICIiIiIiYhndhldERERERCyjAkRERERERCyjAqSbOHr0KFJSUhAaGooRI0b87K14rxfnzp3DhAkTEBYWhpiYGKSnp6OiogKAcYewe+65ByEhIYiKikJxcbG5XXNzMyZPngyXy4WwsDBs2LDBbCOJ2bNnIzg4GCEhIVi6dGmbfWZnZyM4OBgulwtz5syx5kCv0IoVK+Dt7Y3NmzcDsHcm58+fx+zZsxESEoI77rgDDz/8MAD7ZrJt2zbExcUhJiYGUVFRWL16NQB75fHUU08hKCgI3t7e2L9/v7ncExksX74cISEhcLlcyMrKgvtqvrX1KvxUJtOnT0doaChiYmKQmpqK0tJSs82umVxQWFiInj174tVXXzWX2TmTefPmITQ0FFFRUbjrrrvM5XbNpKSkBElJSYiNjUV4eDgWL15stt3omXiUB757RNpx5513cvXq1STJgoICJiQkeLhH18bZs2f5/vvvm7+//vrrHDNmDEkyMzOTzz//PEmypKSE/v7+bGlpIUnOnz+fmZmZJMljx47Rz8+PjY2NJMlVq1Zx7NixJMnGxkYGBgbys/9/E2NRUREjIiLY3NzMc+fOMT4+ntu2bbPmYDvp+PHjTE5OZnJyMt99912S5PTp022bydNPP80nn3zS/L22tpakfTPx9fXlwYMHSRrPld69e/P777+31eumuLiYX3/9NYOCgrhv3z5zudXPicrKSt5+++2sq6sjSWZkZHDZsmUWJHCpn8pky5YtdLvdJMmtW7fS6XSabXbNhCRPnTrFxMREZmRkMDc311xu10xycnI4ceJE8/Vy4X2WtG8m0dHR3Lp1K0nj2Pz8/Hj48GGSN34mnqQCpBuoq6tjv379zA8Pkhw0aBArKio82KuuUVpayqCgIJLkzTff3ObNb8SIEfzwww9JkuHh4fz000/NtgcffJDLly8nSd53333Mz88325555hnOnTuXJDlr1iwuWrTIbFu2bBmnTp3adQd0hVpbWzl27Fju3buXY8aMMQsQu2Zy+vRp9u3bl03tfIW9XTO57bbbWFxcTJLct28f/f39ef78eVvm4XQ625wwWJ3B4sWL+dhjj5lt27ZtY2pq6rU8xE77cSY/dPLkSfbq1cv8TLFzJlOnTuWWLVs4bdq0NgWIXTPx9/fnkSNH2l3XrpnExsZyzZo1JMnq6moGBASY7y92ycQTdAlWN1BTU4PBgwebX1QIAA6HA9XV1R7sVdfIzc3FAw88gMbGRrS0tMDPz89sCwwMNI+5uroagYGBZpvT6bzqtu7klVdeQWpqKmJiYsxlds6koqICvr6+eOGFF5CQkIDRo0ejsLDQ1pmsW7cOEyZMgNPpxKhRo7Bq1So0NTXZNo8LPPGcuJ7yAYCcnBzce++95meKXTPZsGEDevTogfvvv/+SNjtm0tTUhNraWmzatAkjR45EUlIS1q9fb7bbMRMAePvttzFnzhwEBgYiLCwMCxcuNN9f7JqJFfRFhGKZhQsXoqKiAm+++SbOnDnj6e54zKFDh7Bhw4Y2163bXUtLC6qqqhAREYEXX3wR5eXlGDduHA4ePAja8E7hbrcb2dnZ2LRpE1JSUlBaWoqMjAyUl5fbMg+5fHl5eSgoKMAnn3zi6a54VG1tLbKzs1FUVOTprnQbLS0taGlpwblz57B7925UVVUhOTkZw4cPR2RkpKe75zEvvfQSFi1ahEmTJuHYsWMYPXo04uPjERYW5umu3dA0AtINBAQE4MSJE2htbTWXVVdXw+FweLBX19aSJUuwadMmfPDBB+jduzd8fX3Rs2dP1NXVmescP37cPObAwEBUVVW12+ZwOK6orbsoLi5GVVUVXC4XgoKCsHv3bsycORPr16+3bSYOhwM9evTA5MmTAQDR0dFwOp04cOAAfHx8bJdJeXk5Tpw4gZSUFABAfHw8/P39sX//flvm8UOeeO+4XvLJz8/HggULsHPnTgwYMMBcbsdMysrK8O233yI6OhpBQUEoKCjA/PnzMXfuXABdc9zdPZNbb70Vffr0wZQpUwAYz4uUlBSUlJSYv9stk4aGBmzcuBGTJk0CAAQFBWHkyJHYtWsXAHtmYhlPXwMmhrS0NK5cuZIk+c4779wwk9BJ8uWXX2ZcXBy/++67NsszMzM5b948kuSePXvaTCSdN2+eOfGrsrKSAwcOZENDA0ly5cqVHDt2LN1uNxsaGhgYGGhO1v34448ZERHBM2fO8OzZs4yPj+d7771n1aFekTFjxnDz5s0k7Z1Jenp6m0l6AwYM4DfffGPLTGpra9m3b19zIuSRI0fYv39/1tTU2DKPH1+zbXUGlZWVHDJkCGtra9na2sqMjAwuXbrUsuNvz48zyc/Pp8vlYnV19SXr2jWTH/rxHBC7ZpKVlWVOeL5wbCUlJSTtmYnb7Wb//v1ZWFhIkqyvr6fD4TDnfdglE09QAdJNfPHFF0xKSmJISAgTEhLMJ/H17quvvqKXlxeDg4MZExPD6Ohojhw5kqRxkjVu3Di6XC5GRESwqKjI3O706dOcNGkShw0bxtDQUBYUFJhtbrebTzzxBIcOHcrg4GC+9tprbfa5YMECDh06lMOGDeNzzz1nzYFehbS0NHMSup0zqaysZFpaGiMjIxkdHc2NGzeStG8m69atM7OIioriunXrSNorj6ysLPr7+9PHx4eDBg2iy+Ui6ZkM3nrrLQ4bNozBwcGcMWOGWfBY7acy8fHxocPhMN9nY2JizLv12DWTH8rMzGxTgNg1k4aGBmZkZDAiIoKRkZF84403zG3smsnOnTsZFxfH6OhohoeHMycnx9zmRs/Ek7xIXVAsIiIiIiLW0BwQERERERGxjAoQERERERGxjAoQERERERGxjAoQERERERGxjAoQERERERGxjAoQERERERGxjAoQERERERGxjAoQERERERGxjAoQERERERGxjAoQERERERGxjAoQERERERGxjAoQERERERGxjAoQERERERGxjAoQERERERGxjAoQERERERGxjAoQERERERGxjAoQERERERGxjAoQERERERGxjAoQERERERGxjAoQERERERGxjAoQERERERGxjAoQERERERGxjAoQERERERGxjAoQERERERGxjAoQERERERGxjAoQERERERGxjAoQERERERGxjAoQERERERGxjAoQERERERGxjAoQERERERGxjAoQERERERGxjAoQERERERGxjAoQERERERGxjAoQERERERGxjAoQERERERGxjAoQERERERGxjAoQERERERGxjAoQERERERGxjAoQERERERGxjAoQERERERGxjAoQERERERGxjAoQERERERGxjAoQERERERGxjAoQERERERGxjAoQERERERGxzP8AtpG11iRVY5IAAAAASUVORK5CYII='
p191
tp192
sasS'integrative'
p193
(dp194
S'final_reads'
p195
(I1326098
F0.663117964268284
tp196
sS'annotation_enrichments'
p197
(dp198
S'Blacklist'
p199
(I8124
F0.007488109722375844
tp200
sS'Promoters'
p201
(I111783
F0.10303340338458135
tp202
sS'DNAse'
p203
(I459955
F0.4239529181875161
tp204
sS'Enhancers'
p205
(I346716
F0.319577480367216
tp206
sS'Peaks'
p207
(I2280
F0.002101537440548612
tp208
sss.